ccopy_reg
_reconstructor
p0
(cBreadboard
Breadboard
p1
c__builtin__
object
p2
Ntp3
Rp4
(dp5
S'numRows'
p6
I18
sS'locMatrix'
p7
g0
(cMatrix
Matrix
p8
g2
Ntp9
Rp10
(dp11
g6
I18
sS'numColumns'
p12
I63
sS'matrix'
p13
(lp14
(lp15
g0
(cLocation
Location
p16
g2
Ntp17
Rp18
(dp19
S'isFilled'
p20
I00
sS'yLoc'
p21
I0
sS'displayFlag'
p22
I1
sS'xLoc'
p23
I0
sS'Node'
p24
g0
(cNode
Node
p25
g2
Ntp26
Rp27
(dp28
S'number'
p29
I1
sS'voltage'
p30
g0
(cVoltage
Voltage
p31
g2
Ntp32
Rp33
(dp34
S'volts'
p35
I5
sS'frequency'
p36
I0
sS'voltageType'
p37
S'DC'
p38
sbsbsbag0
(g16
g2
Ntp39
Rp40
(dp41
g20
I00
sg21
I1
sg22
I1
sg23
I0
sg24
g0
(g25
g2
Ntp42
Rp43
(dp44
g29
I2
sg30
g0
(g31
g2
Ntp45
Rp46
(dp47
g35
F2.5
sg36
I0
sg37
g38
sbsbsbag0
(g16
g2
Ntp48
Rp49
(dp50
g20
I01
sg21
I2
sg22
I3
sg23
I0
sg24
g0
(g25
g2
Ntp51
Rp52
(dp53
g29
I-1
sg30
g0
(g31
g2
Ntp54
Rp55
(dp56
g35
I0
sg36
I0
sg37
g38
sbsbsbag0
(g16
g2
Ntp57
Rp58
(dp59
g20
I00
sg21
I3
sg22
I1
sg23
I0
sg24
g0
(g25
g2
Ntp60
Rp61
(dp62
g29
I0
sg30
g0
(g31
g2
Ntp63
Rp64
(dp65
g35
I0
sg36
I0
sg37
g38
sbsbsbag0
(g16
g2
Ntp66
Rp67
(dp68
g20
I00
sg21
I4
sg22
I1
sg23
I0
sg24
g61
sbag0
(g16
g2
Ntp69
Rp70
(dp71
g20
I00
sg21
I5
sg22
I1
sg23
I0
sg24
g61
sbag0
(g16
g2
Ntp72
Rp73
(dp74
g20
I00
sg21
I6
sg22
I1
sg23
I0
sg24
g61
sbag0
(g16
g2
Ntp75
Rp76
(dp77
g20
I00
sg21
I7
sg22
I1
sg23
I0
sg24
g61
sbag0
(g16
g2
Ntp78
Rp79
(dp80
g20
I01
sg21
I8
sg22
I5
sg23
I0
sg24
g52
sbag0
(g16
g2
Ntp81
Rp82
(dp83
g20
I01
sg21
I9
sg22
I4
sg23
I0
sg24
g52
sbag0
(g16
g2
Ntp84
Rp85
(dp86
g20
I00
sg21
I10
sg22
I1
sg23
I0
sg24
g0
(g25
g2
Ntp87
Rp88
(dp89
g29
I1
sg30
g0
(g31
g2
Ntp90
Rp91
(dp92
g35
I0
sg36
I0
sg37
g38
sbsbsbag0
(g16
g2
Ntp93
Rp94
(dp95
g20
I00
sg21
I11
sg22
I1
sg23
I0
sg24
g88
sbag0
(g16
g2
Ntp96
Rp97
(dp98
g20
I00
sg21
I12
sg22
I1
sg23
I0
sg24
g88
sbag0
(g16
g2
Ntp99
Rp100
(dp101
g20
I00
sg21
I13
sg22
I1
sg23
I0
sg24
g88
sbag0
(g16
g2
Ntp102
Rp103
(dp104
g20
I00
sg21
I14
sg22
I1
sg23
I0
sg24
g88
sbag0
(g16
g2
Ntp105
Rp106
(dp107
g20
I01
sg21
I15
sg22
I2
sg23
I0
sg24
g52
sbag0
(g16
g2
Ntp108
Rp109
(dp110
g20
I00
sg21
I16
sg22
I1
sg23
I0
sg24
g0
(g25
g2
Ntp111
Rp112
(dp113
g29
I3
sg30
g0
(g31
g2
Ntp114
Rp115
(dp116
g35
F2.5
sg36
I0
sg37
g38
sbsbsbag0
(g16
g2
Ntp117
Rp118
(dp119
g20
I00
sg21
I17
sg22
I1
sg23
I0
sg24
g0
(g25
g2
Ntp120
Rp121
(dp122
g29
I0
sg30
g0
(g31
g2
Ntp123
Rp124
(dp125
g35
I0
sg36
I0
sg37
g38
sbsbsbaa(lp126
g0
(g16
g2
Ntp127
Rp128
(dp129
g20
I00
sg21
I0
sg22
I1
sg23
I1
sg24
g27
sbag0
(g16
g2
Ntp130
Rp131
(dp132
g20
I00
sg21
I1
sg22
I1
sg23
I1
sg24
g43
sbag0
(g16
g2
Ntp133
Rp134
(dp135
g20
I01
sg21
I2
sg22
I3
sg23
I1
sg24
g52
sbag0
(g16
g2
Ntp136
Rp137
(dp138
g20
I00
sg21
I3
sg22
I1
sg23
I1
sg24
g0
(g25
g2
Ntp139
Rp140
(dp141
g29
I4
sg30
g0
(g31
g2
Ntp142
Rp143
(dp144
g35
I0
sg36
I0
sg37
g38
sbsbsbag0
(g16
g2
Ntp145
Rp146
(dp147
g20
I00
sg21
I4
sg22
I1
sg23
I1
sg24
g140
sbag0
(g16
g2
Ntp148
Rp149
(dp150
g20
I00
sg21
I5
sg22
I1
sg23
I1
sg24
g140
sbag0
(g16
g2
Ntp151
Rp152
(dp153
g20
I00
sg21
I6
sg22
I1
sg23
I1
sg24
g140
sbag0
(g16
g2
Ntp154
Rp155
(dp156
g20
I00
sg21
I7
sg22
I1
sg23
I1
sg24
g140
sbag0
(g16
g2
Ntp157
Rp158
(dp159
g20
I01
sg21
I8
sg22
I5
sg23
I1
sg24
g52
sbag0
(g16
g2
Ntp160
Rp161
(dp162
g20
I01
sg21
I9
sg22
I4
sg23
I1
sg24
g52
sbag0
(g16
g2
Ntp163
Rp164
(dp165
g20
I00
sg21
I10
sg22
I1
sg23
I1
sg24
g0
(g25
g2
Ntp166
Rp167
(dp168
g29
I5
sg30
g0
(g31
g2
Ntp169
Rp170
(dp171
g35
I0
sg36
I0
sg37
g38
sbsbsbag0
(g16
g2
Ntp172
Rp173
(dp174
g20
I00
sg21
I11
sg22
I1
sg23
I1
sg24
g167
sbag0
(g16
g2
Ntp175
Rp176
(dp177
g20
I00
sg21
I12
sg22
I1
sg23
I1
sg24
g167
sbag0
(g16
g2
Ntp178
Rp179
(dp180
g20
I00
sg21
I13
sg22
I1
sg23
I1
sg24
g167
sbag0
(g16
g2
Ntp181
Rp182
(dp183
g20
I00
sg21
I14
sg22
I1
sg23
I1
sg24
g167
sbag0
(g16
g2
Ntp184
Rp185
(dp186
g20
I01
sg21
I15
sg22
I2
sg23
I1
sg24
g52
sbag0
(g16
g2
Ntp187
Rp188
(dp189
g20
I00
sg21
I16
sg22
I1
sg23
I1
sg24
g112
sbag0
(g16
g2
Ntp190
Rp191
(dp192
g20
I00
sg21
I17
sg22
I1
sg23
I1
sg24
g121
sbaa(lp193
g0
(g16
g2
Ntp194
Rp195
(dp196
g20
I00
sg21
I0
sg22
I1
sg23
I2
sg24
g27
sbag0
(g16
g2
Ntp197
Rp198
(dp199
g20
I00
sg21
I1
sg22
I1
sg23
I2
sg24
g43
sbag0
(g16
g2
Ntp200
Rp201
(dp202
g20
I01
sg21
I2
sg22
I3
sg23
I2
sg24
g52
sbag0
(g16
g2
Ntp203
Rp204
(dp205
g20
I00
sg21
I3
sg22
I1
sg23
I2
sg24
g0
(g25
g2
Ntp206
Rp207
(dp208
g29
I8
sg30
g0
(g31
g2
Ntp209
Rp210
(dp211
g35
I0
sg36
I0
sg37
g38
sbsbsbag0
(g16
g2
Ntp212
Rp213
(dp214
g20
I00
sg21
I4
sg22
I1
sg23
I2
sg24
g207
sbag0
(g16
g2
Ntp215
Rp216
(dp217
g20
I00
sg21
I5
sg22
I1
sg23
I2
sg24
g207
sbag0
(g16
g2
Ntp218
Rp219
(dp220
g20
I00
sg21
I6
sg22
I1
sg23
I2
sg24
g207
sbag0
(g16
g2
Ntp221
Rp222
(dp223
g20
I00
sg21
I7
sg22
I1
sg23
I2
sg24
g207
sbag0
(g16
g2
Ntp224
Rp225
(dp226
g20
I01
sg21
I8
sg22
I5
sg23
I2
sg24
g52
sbag0
(g16
g2
Ntp227
Rp228
(dp229
g20
I01
sg21
I9
sg22
I4
sg23
I2
sg24
g52
sbag0
(g16
g2
Ntp230
Rp231
(dp232
g20
I00
sg21
I10
sg22
I1
sg23
I2
sg24
g0
(g25
g2
Ntp233
Rp234
(dp235
g29
I9
sg30
g0
(g31
g2
Ntp236
Rp237
(dp238
g35
I0
sg36
I0
sg37
g38
sbsbsbag0
(g16
g2
Ntp239
Rp240
(dp241
g20
I00
sg21
I11
sg22
I1
sg23
I2
sg24
g234
sbag0
(g16
g2
Ntp242
Rp243
(dp244
g20
I00
sg21
I12
sg22
I1
sg23
I2
sg24
g234
sbag0
(g16
g2
Ntp245
Rp246
(dp247
g20
I00
sg21
I13
sg22
I1
sg23
I2
sg24
g234
sbag0
(g16
g2
Ntp248
Rp249
(dp250
g20
I00
sg21
I14
sg22
I1
sg23
I2
sg24
g234
sbag0
(g16
g2
Ntp251
Rp252
(dp253
g20
I01
sg21
I15
sg22
I2
sg23
I2
sg24
g52
sbag0
(g16
g2
Ntp254
Rp255
(dp256
g20
I00
sg21
I16
sg22
I1
sg23
I2
sg24
g112
sbag0
(g16
g2
Ntp257
Rp258
(dp259
g20
I00
sg21
I17
sg22
I1
sg23
I2
sg24
g121
sbaa(lp260
g0
(g16
g2
Ntp261
Rp262
(dp263
g20
I00
sg21
I0
sg22
I1
sg23
I3
sg24
g27
sbag0
(g16
g2
Ntp264
Rp265
(dp266
g20
I00
sg21
I1
sg22
I1
sg23
I3
sg24
g43
sbag0
(g16
g2
Ntp267
Rp268
(dp269
g20
I01
sg21
I2
sg22
I3
sg23
I3
sg24
g52
sbag0
(g16
g2
Ntp270
Rp271
(dp272
g20
I00
sg21
I3
sg22
I1
sg23
I3
sg24
g0
(g25
g2
Ntp273
Rp274
(dp275
g29
I12
sg30
g0
(g31
g2
Ntp276
Rp277
(dp278
g35
I0
sg36
I0
sg37
g38
sbsbsbag0
(g16
g2
Ntp279
Rp280
(dp281
g20
I00
sg21
I4
sg22
I1
sg23
I3
sg24
g274
sbag0
(g16
g2
Ntp282
Rp283
(dp284
g20
I00
sg21
I5
sg22
I1
sg23
I3
sg24
g274
sbag0
(g16
g2
Ntp285
Rp286
(dp287
g20
I00
sg21
I6
sg22
I1
sg23
I3
sg24
g274
sbag0
(g16
g2
Ntp288
Rp289
(dp290
g20
I00
sg21
I7
sg22
I1
sg23
I3
sg24
g274
sbag0
(g16
g2
Ntp291
Rp292
(dp293
g20
I01
sg21
I8
sg22
I5
sg23
I3
sg24
g52
sbag0
(g16
g2
Ntp294
Rp295
(dp296
g20
I01
sg21
I9
sg22
I4
sg23
I3
sg24
g52
sbag0
(g16
g2
Ntp297
Rp298
(dp299
g20
I00
sg21
I10
sg22
I1
sg23
I3
sg24
g0
(g25
g2
Ntp300
Rp301
(dp302
g29
I13
sg30
g0
(g31
g2
Ntp303
Rp304
(dp305
g35
I0
sg36
I0
sg37
g38
sbsbsbag0
(g16
g2
Ntp306
Rp307
(dp308
g20
I00
sg21
I11
sg22
I1
sg23
I3
sg24
g301
sbag0
(g16
g2
Ntp309
Rp310
(dp311
g20
I00
sg21
I12
sg22
I1
sg23
I3
sg24
g301
sbag0
(g16
g2
Ntp312
Rp313
(dp314
g20
I00
sg21
I13
sg22
I1
sg23
I3
sg24
g301
sbag0
(g16
g2
Ntp315
Rp316
(dp317
g20
I00
sg21
I14
sg22
I1
sg23
I3
sg24
g301
sbag0
(g16
g2
Ntp318
Rp319
(dp320
g20
I01
sg21
I15
sg22
I2
sg23
I3
sg24
g52
sbag0
(g16
g2
Ntp321
Rp322
(dp323
g20
I00
sg21
I16
sg22
I1
sg23
I3
sg24
g112
sbag0
(g16
g2
Ntp324
Rp325
(dp326
g20
I00
sg21
I17
sg22
I1
sg23
I3
sg24
g121
sbaa(lp327
g0
(g16
g2
Ntp328
Rp329
(dp330
g20
I00
sg21
I0
sg22
I1
sg23
I4
sg24
g27
sbag0
(g16
g2
Ntp331
Rp332
(dp333
g20
I00
sg21
I1
sg22
I1
sg23
I4
sg24
g43
sbag0
(g16
g2
Ntp334
Rp335
(dp336
g20
I01
sg21
I2
sg22
I3
sg23
I4
sg24
g52
sbag0
(g16
g2
Ntp337
Rp338
(dp339
g20
I00
sg21
I3
sg22
I1
sg23
I4
sg24
g0
(g25
g2
Ntp340
Rp341
(dp342
g29
I16
sg30
g0
(g31
g2
Ntp343
Rp344
(dp345
g35
I0
sg36
I0
sg37
g38
sbsbsbag0
(g16
g2
Ntp346
Rp347
(dp348
g20
I00
sg21
I4
sg22
I1
sg23
I4
sg24
g341
sbag0
(g16
g2
Ntp349
Rp350
(dp351
g20
I00
sg21
I5
sg22
I1
sg23
I4
sg24
g341
sbag0
(g16
g2
Ntp352
Rp353
(dp354
g20
I00
sg21
I6
sg22
I1
sg23
I4
sg24
g341
sbag0
(g16
g2
Ntp355
Rp356
(dp357
g20
I00
sg21
I7
sg22
I1
sg23
I4
sg24
g341
sbag0
(g16
g2
Ntp358
Rp359
(dp360
g20
I01
sg21
I8
sg22
I5
sg23
I4
sg24
g52
sbag0
(g16
g2
Ntp361
Rp362
(dp363
g20
I01
sg21
I9
sg22
I4
sg23
I4
sg24
g52
sbag0
(g16
g2
Ntp364
Rp365
(dp366
g20
I00
sg21
I10
sg22
I1
sg23
I4
sg24
g0
(g25
g2
Ntp367
Rp368
(dp369
g29
I17
sg30
g0
(g31
g2
Ntp370
Rp371
(dp372
g35
I0
sg36
I0
sg37
g38
sbsbsbag0
(g16
g2
Ntp373
Rp374
(dp375
g20
I00
sg21
I11
sg22
I1
sg23
I4
sg24
g368
sbag0
(g16
g2
Ntp376
Rp377
(dp378
g20
I00
sg21
I12
sg22
I1
sg23
I4
sg24
g368
sbag0
(g16
g2
Ntp379
Rp380
(dp381
g20
I00
sg21
I13
sg22
I1
sg23
I4
sg24
g368
sbag0
(g16
g2
Ntp382
Rp383
(dp384
g20
I00
sg21
I14
sg22
I1
sg23
I4
sg24
g368
sbag0
(g16
g2
Ntp385
Rp386
(dp387
g20
I01
sg21
I15
sg22
I2
sg23
I4
sg24
g52
sbag0
(g16
g2
Ntp388
Rp389
(dp390
g20
I00
sg21
I16
sg22
I1
sg23
I4
sg24
g112
sbag0
(g16
g2
Ntp391
Rp392
(dp393
g20
I00
sg21
I17
sg22
I1
sg23
I4
sg24
g121
sbaa(lp394
g0
(g16
g2
Ntp395
Rp396
(dp397
g20
I01
sg21
I0
sg22
I6
sg23
I5
sg24
g27
sbag0
(g16
g2
Ntp398
Rp399
(dp400
g20
I01
sg21
I1
sg22
I6
sg23
I5
sg24
g43
sbag0
(g16
g2
Ntp401
Rp402
(dp403
g20
I01
sg21
I2
sg22
I3
sg23
I5
sg24
g52
sbag0
(g16
g2
Ntp404
Rp405
(dp406
g20
I00
sg21
I3
sg22
I1
sg23
I5
sg24
g0
(g25
g2
Ntp407
Rp408
(dp409
g29
I20
sg30
g0
(g31
g2
Ntp410
Rp411
(dp412
g35
I0
sg36
I0
sg37
g38
sbsbsbag0
(g16
g2
Ntp413
Rp414
(dp415
g20
I00
sg21
I4
sg22
I1
sg23
I5
sg24
g408
sbag0
(g16
g2
Ntp416
Rp417
(dp418
g20
I00
sg21
I5
sg22
I1
sg23
I5
sg24
g408
sbag0
(g16
g2
Ntp419
Rp420
(dp421
g20
I00
sg21
I6
sg22
I1
sg23
I5
sg24
g408
sbag0
(g16
g2
Ntp422
Rp423
(dp424
g20
I00
sg21
I7
sg22
I1
sg23
I5
sg24
g408
sbag0
(g16
g2
Ntp425
Rp426
(dp427
g20
I01
sg21
I8
sg22
I5
sg23
I5
sg24
g52
sbag0
(g16
g2
Ntp428
Rp429
(dp430
g20
I01
sg21
I9
sg22
I4
sg23
I5
sg24
g52
sbag0
(g16
g2
Ntp431
Rp432
(dp433
g20
I00
sg21
I10
sg22
I1
sg23
I5
sg24
g0
(g25
g2
Ntp434
Rp435
(dp436
g29
I21
sg30
g0
(g31
g2
Ntp437
Rp438
(dp439
g35
I0
sg36
I0
sg37
g38
sbsbsbag0
(g16
g2
Ntp440
Rp441
(dp442
g20
I00
sg21
I11
sg22
I1
sg23
I5
sg24
g435
sbag0
(g16
g2
Ntp443
Rp444
(dp445
g20
I00
sg21
I12
sg22
I1
sg23
I5
sg24
g435
sbag0
(g16
g2
Ntp446
Rp447
(dp448
g20
I00
sg21
I13
sg22
I1
sg23
I5
sg24
g435
sbag0
(g16
g2
Ntp449
Rp450
(dp451
g20
I00
sg21
I14
sg22
I1
sg23
I5
sg24
g435
sbag0
(g16
g2
Ntp452
Rp453
(dp454
g20
I01
sg21
I15
sg22
I2
sg23
I5
sg24
g52
sbag0
(g16
g2
Ntp455
Rp456
(dp457
g20
I01
sg21
I16
sg22
I6
sg23
I5
sg24
g112
sbag0
(g16
g2
Ntp458
Rp459
(dp460
g20
I01
sg21
I17
sg22
I6
sg23
I5
sg24
g121
sbaa(lp461
g0
(g16
g2
Ntp462
Rp463
(dp464
g20
I00
sg21
I0
sg22
I1
sg23
I6
sg24
g27
sbag0
(g16
g2
Ntp465
Rp466
(dp467
g20
I00
sg21
I1
sg22
I1
sg23
I6
sg24
g43
sbag0
(g16
g2
Ntp468
Rp469
(dp470
g20
I01
sg21
I2
sg22
I3
sg23
I6
sg24
g52
sbag0
(g16
g2
Ntp471
Rp472
(dp473
g20
I00
sg21
I3
sg22
I1
sg23
I6
sg24
g0
(g25
g2
Ntp474
Rp475
(dp476
g29
I24
sg30
g0
(g31
g2
Ntp477
Rp478
(dp479
g35
I0
sg36
I0
sg37
g38
sbsbsbag0
(g16
g2
Ntp480
Rp481
(dp482
g20
I00
sg21
I4
sg22
I1
sg23
I6
sg24
g475
sbag0
(g16
g2
Ntp483
Rp484
(dp485
g20
I00
sg21
I5
sg22
I1
sg23
I6
sg24
g475
sbag0
(g16
g2
Ntp486
Rp487
(dp488
g20
I00
sg21
I6
sg22
I1
sg23
I6
sg24
g475
sbag0
(g16
g2
Ntp489
Rp490
(dp491
g20
I00
sg21
I7
sg22
I1
sg23
I6
sg24
g475
sbag0
(g16
g2
Ntp492
Rp493
(dp494
g20
I01
sg21
I8
sg22
I5
sg23
I6
sg24
g52
sbag0
(g16
g2
Ntp495
Rp496
(dp497
g20
I01
sg21
I9
sg22
I4
sg23
I6
sg24
g52
sbag0
(g16
g2
Ntp498
Rp499
(dp500
g20
I00
sg21
I10
sg22
I1
sg23
I6
sg24
g0
(g25
g2
Ntp501
Rp502
(dp503
g29
I25
sg30
g0
(g31
g2
Ntp504
Rp505
(dp506
g35
I0
sg36
I0
sg37
g38
sbsbsbag0
(g16
g2
Ntp507
Rp508
(dp509
g20
I00
sg21
I11
sg22
I1
sg23
I6
sg24
g502
sbag0
(g16
g2
Ntp510
Rp511
(dp512
g20
I00
sg21
I12
sg22
I1
sg23
I6
sg24
g502
sbag0
(g16
g2
Ntp513
Rp514
(dp515
g20
I00
sg21
I13
sg22
I1
sg23
I6
sg24
g502
sbag0
(g16
g2
Ntp516
Rp517
(dp518
g20
I00
sg21
I14
sg22
I1
sg23
I6
sg24
g502
sbag0
(g16
g2
Ntp519
Rp520
(dp521
g20
I01
sg21
I15
sg22
I2
sg23
I6
sg24
g52
sbag0
(g16
g2
Ntp522
Rp523
(dp524
g20
I00
sg21
I16
sg22
I1
sg23
I6
sg24
g112
sbag0
(g16
g2
Ntp525
Rp526
(dp527
g20
I00
sg21
I17
sg22
I1
sg23
I6
sg24
g121
sbaa(lp528
g0
(g16
g2
Ntp529
Rp530
(dp531
g20
I00
sg21
I0
sg22
I1
sg23
I7
sg24
g27
sbag0
(g16
g2
Ntp532
Rp533
(dp534
g20
I00
sg21
I1
sg22
I1
sg23
I7
sg24
g43
sbag0
(g16
g2
Ntp535
Rp536
(dp537
g20
I01
sg21
I2
sg22
I3
sg23
I7
sg24
g52
sbag0
(g16
g2
Ntp538
Rp539
(dp540
g20
I00
sg21
I3
sg22
I1
sg23
I7
sg24
g0
(g25
g2
Ntp541
Rp542
(dp543
g29
I28
sg30
g0
(g31
g2
Ntp544
Rp545
(dp546
g35
I0
sg36
I0
sg37
g38
sbsbsbag0
(g16
g2
Ntp547
Rp548
(dp549
g20
I00
sg21
I4
sg22
I1
sg23
I7
sg24
g542
sbag0
(g16
g2
Ntp550
Rp551
(dp552
g20
I00
sg21
I5
sg22
I1
sg23
I7
sg24
g542
sbag0
(g16
g2
Ntp553
Rp554
(dp555
g20
I00
sg21
I6
sg22
I1
sg23
I7
sg24
g542
sbag0
(g16
g2
Ntp556
Rp557
(dp558
g20
I00
sg21
I7
sg22
I1
sg23
I7
sg24
g542
sbag0
(g16
g2
Ntp559
Rp560
(dp561
g20
I01
sg21
I8
sg22
I5
sg23
I7
sg24
g52
sbag0
(g16
g2
Ntp562
Rp563
(dp564
g20
I01
sg21
I9
sg22
I4
sg23
I7
sg24
g52
sbag0
(g16
g2
Ntp565
Rp566
(dp567
g20
I00
sg21
I10
sg22
I1
sg23
I7
sg24
g0
(g25
g2
Ntp568
Rp569
(dp570
g29
I29
sg30
g0
(g31
g2
Ntp571
Rp572
(dp573
g35
I0
sg36
I0
sg37
g38
sbsbsbag0
(g16
g2
Ntp574
Rp575
(dp576
g20
I00
sg21
I11
sg22
I1
sg23
I7
sg24
g569
sbag0
(g16
g2
Ntp577
Rp578
(dp579
g20
I00
sg21
I12
sg22
I1
sg23
I7
sg24
g569
sbag0
(g16
g2
Ntp580
Rp581
(dp582
g20
I00
sg21
I13
sg22
I1
sg23
I7
sg24
g569
sbag0
(g16
g2
Ntp583
Rp584
(dp585
g20
I00
sg21
I14
sg22
I1
sg23
I7
sg24
g569
sbag0
(g16
g2
Ntp586
Rp587
(dp588
g20
I01
sg21
I15
sg22
I2
sg23
I7
sg24
g52
sbag0
(g16
g2
Ntp589
Rp590
(dp591
g20
I00
sg21
I16
sg22
I1
sg23
I7
sg24
g112
sbag0
(g16
g2
Ntp592
Rp593
(dp594
g20
I00
sg21
I17
sg22
I1
sg23
I7
sg24
g121
sbaa(lp595
g0
(g16
g2
Ntp596
Rp597
(dp598
g20
I00
sg21
I0
sg22
I1
sg23
I8
sg24
g27
sbag0
(g16
g2
Ntp599
Rp600
(dp601
g20
I00
sg21
I1
sg22
I1
sg23
I8
sg24
g43
sbag0
(g16
g2
Ntp602
Rp603
(dp604
g20
I01
sg21
I2
sg22
I3
sg23
I8
sg24
g52
sbag0
(g16
g2
Ntp605
Rp606
(dp607
g20
I00
sg21
I3
sg22
I1
sg23
I8
sg24
g0
(g25
g2
Ntp608
Rp609
(dp610
g29
I32
sg30
g0
(g31
g2
Ntp611
Rp612
(dp613
g35
I0
sg36
I0
sg37
g38
sbsbsbag0
(g16
g2
Ntp614
Rp615
(dp616
g20
I00
sg21
I4
sg22
I1
sg23
I8
sg24
g609
sbag0
(g16
g2
Ntp617
Rp618
(dp619
g20
I00
sg21
I5
sg22
I1
sg23
I8
sg24
g609
sbag0
(g16
g2
Ntp620
Rp621
(dp622
g20
I00
sg21
I6
sg22
I1
sg23
I8
sg24
g609
sbag0
(g16
g2
Ntp623
Rp624
(dp625
g20
I00
sg21
I7
sg22
I1
sg23
I8
sg24
g609
sbag0
(g16
g2
Ntp626
Rp627
(dp628
g20
I01
sg21
I8
sg22
I5
sg23
I8
sg24
g52
sbag0
(g16
g2
Ntp629
Rp630
(dp631
g20
I01
sg21
I9
sg22
I4
sg23
I8
sg24
g52
sbag0
(g16
g2
Ntp632
Rp633
(dp634
g20
I00
sg21
I10
sg22
I1
sg23
I8
sg24
g0
(g25
g2
Ntp635
Rp636
(dp637
g29
I33
sg30
g0
(g31
g2
Ntp638
Rp639
(dp640
g35
I0
sg36
I0
sg37
g38
sbsbsbag0
(g16
g2
Ntp641
Rp642
(dp643
g20
I00
sg21
I11
sg22
I1
sg23
I8
sg24
g636
sbag0
(g16
g2
Ntp644
Rp645
(dp646
g20
I00
sg21
I12
sg22
I1
sg23
I8
sg24
g636
sbag0
(g16
g2
Ntp647
Rp648
(dp649
g20
I00
sg21
I13
sg22
I1
sg23
I8
sg24
g636
sbag0
(g16
g2
Ntp650
Rp651
(dp652
g20
I00
sg21
I14
sg22
I1
sg23
I8
sg24
g636
sbag0
(g16
g2
Ntp653
Rp654
(dp655
g20
I01
sg21
I15
sg22
I2
sg23
I8
sg24
g52
sbag0
(g16
g2
Ntp656
Rp657
(dp658
g20
I00
sg21
I16
sg22
I1
sg23
I8
sg24
g112
sbag0
(g16
g2
Ntp659
Rp660
(dp661
g20
I00
sg21
I17
sg22
I1
sg23
I8
sg24
g121
sbaa(lp662
g0
(g16
g2
Ntp663
Rp664
(dp665
g20
I00
sg21
I0
sg22
I1
sg23
I9
sg24
g27
sbag0
(g16
g2
Ntp666
Rp667
(dp668
g20
I00
sg21
I1
sg22
I1
sg23
I9
sg24
g43
sbag0
(g16
g2
Ntp669
Rp670
(dp671
g20
I01
sg21
I2
sg22
I3
sg23
I9
sg24
g52
sbag0
(g16
g2
Ntp672
Rp673
(dp674
g20
I00
sg21
I3
sg22
I1
sg23
I9
sg24
g0
(g25
g2
Ntp675
Rp676
(dp677
g29
I36
sg30
g0
(g31
g2
Ntp678
Rp679
(dp680
g35
I0
sg36
I0
sg37
g38
sbsbsbag0
(g16
g2
Ntp681
Rp682
(dp683
g20
I00
sg21
I4
sg22
I1
sg23
I9
sg24
g676
sbag0
(g16
g2
Ntp684
Rp685
(dp686
g20
I00
sg21
I5
sg22
I1
sg23
I9
sg24
g676
sbag0
(g16
g2
Ntp687
Rp688
(dp689
g20
I00
sg21
I6
sg22
I1
sg23
I9
sg24
g676
sbag0
(g16
g2
Ntp690
Rp691
(dp692
g20
I00
sg21
I7
sg22
I1
sg23
I9
sg24
g676
sbag0
(g16
g2
Ntp693
Rp694
(dp695
g20
I01
sg21
I8
sg22
I5
sg23
I9
sg24
g52
sbag0
(g16
g2
Ntp696
Rp697
(dp698
g20
I01
sg21
I9
sg22
I4
sg23
I9
sg24
g52
sbag0
(g16
g2
Ntp699
Rp700
(dp701
g20
I00
sg21
I10
sg22
I1
sg23
I9
sg24
g0
(g25
g2
Ntp702
Rp703
(dp704
g29
I37
sg30
g0
(g31
g2
Ntp705
Rp706
(dp707
g35
I0
sg36
I0
sg37
g38
sbsbsbag0
(g16
g2
Ntp708
Rp709
(dp710
g20
I00
sg21
I11
sg22
I1
sg23
I9
sg24
g703
sbag0
(g16
g2
Ntp711
Rp712
(dp713
g20
I00
sg21
I12
sg22
I1
sg23
I9
sg24
g703
sbag0
(g16
g2
Ntp714
Rp715
(dp716
g20
I00
sg21
I13
sg22
I1
sg23
I9
sg24
g703
sbag0
(g16
g2
Ntp717
Rp718
(dp719
g20
I00
sg21
I14
sg22
I1
sg23
I9
sg24
g703
sbag0
(g16
g2
Ntp720
Rp721
(dp722
g20
I01
sg21
I15
sg22
I2
sg23
I9
sg24
g52
sbag0
(g16
g2
Ntp723
Rp724
(dp725
g20
I00
sg21
I16
sg22
I1
sg23
I9
sg24
g112
sbag0
(g16
g2
Ntp726
Rp727
(dp728
g20
I00
sg21
I17
sg22
I1
sg23
I9
sg24
g121
sbaa(lp729
g0
(g16
g2
Ntp730
Rp731
(dp732
g20
I00
sg21
I0
sg22
I1
sg23
I10
sg24
g27
sbag0
(g16
g2
Ntp733
Rp734
(dp735
g20
I00
sg21
I1
sg22
I1
sg23
I10
sg24
g43
sbag0
(g16
g2
Ntp736
Rp737
(dp738
g20
I01
sg21
I2
sg22
I3
sg23
I10
sg24
g52
sbag0
(g16
g2
Ntp739
Rp740
(dp741
g20
I00
sg21
I3
sg22
I1
sg23
I10
sg24
g0
(g25
g2
Ntp742
Rp743
(dp744
g29
I40
sg30
g0
(g31
g2
Ntp745
Rp746
(dp747
g35
I0
sg36
I0
sg37
g38
sbsbsbag0
(g16
g2
Ntp748
Rp749
(dp750
g20
I00
sg21
I4
sg22
I1
sg23
I10
sg24
g743
sbag0
(g16
g2
Ntp751
Rp752
(dp753
g20
I00
sg21
I5
sg22
I1
sg23
I10
sg24
g743
sbag0
(g16
g2
Ntp754
Rp755
(dp756
g20
I00
sg21
I6
sg22
I1
sg23
I10
sg24
g743
sbag0
(g16
g2
Ntp757
Rp758
(dp759
g20
I00
sg21
I7
sg22
I1
sg23
I10
sg24
g743
sbag0
(g16
g2
Ntp760
Rp761
(dp762
g20
I01
sg21
I8
sg22
I5
sg23
I10
sg24
g52
sbag0
(g16
g2
Ntp763
Rp764
(dp765
g20
I01
sg21
I9
sg22
I4
sg23
I10
sg24
g52
sbag0
(g16
g2
Ntp766
Rp767
(dp768
g20
I00
sg21
I10
sg22
I1
sg23
I10
sg24
g0
(g25
g2
Ntp769
Rp770
(dp771
g29
I41
sg30
g0
(g31
g2
Ntp772
Rp773
(dp774
g35
I0
sg36
I0
sg37
g38
sbsbsbag0
(g16
g2
Ntp775
Rp776
(dp777
g20
I00
sg21
I11
sg22
I1
sg23
I10
sg24
g770
sbag0
(g16
g2
Ntp778
Rp779
(dp780
g20
I00
sg21
I12
sg22
I1
sg23
I10
sg24
g770
sbag0
(g16
g2
Ntp781
Rp782
(dp783
g20
I00
sg21
I13
sg22
I1
sg23
I10
sg24
g770
sbag0
(g16
g2
Ntp784
Rp785
(dp786
g20
I00
sg21
I14
sg22
I1
sg23
I10
sg24
g770
sbag0
(g16
g2
Ntp787
Rp788
(dp789
g20
I01
sg21
I15
sg22
I2
sg23
I10
sg24
g52
sbag0
(g16
g2
Ntp790
Rp791
(dp792
g20
I00
sg21
I16
sg22
I1
sg23
I10
sg24
g112
sbag0
(g16
g2
Ntp793
Rp794
(dp795
g20
I00
sg21
I17
sg22
I1
sg23
I10
sg24
g121
sbaa(lp796
g0
(g16
g2
Ntp797
Rp798
(dp799
g20
I01
sg21
I0
sg22
I6
sg23
I11
sg24
g27
sbag0
(g16
g2
Ntp800
Rp801
(dp802
g20
I01
sg21
I1
sg22
I6
sg23
I11
sg24
g43
sbag0
(g16
g2
Ntp803
Rp804
(dp805
g20
I01
sg21
I2
sg22
I3
sg23
I11
sg24
g52
sbag0
(g16
g2
Ntp806
Rp807
(dp808
g20
I00
sg21
I3
sg22
I1
sg23
I11
sg24
g0
(g25
g2
Ntp809
Rp810
(dp811
g29
I44
sg30
g0
(g31
g2
Ntp812
Rp813
(dp814
g35
I0
sg36
I0
sg37
g38
sbsbsbag0
(g16
g2
Ntp815
Rp816
(dp817
g20
I00
sg21
I4
sg22
I1
sg23
I11
sg24
g810
sbag0
(g16
g2
Ntp818
Rp819
(dp820
g20
I00
sg21
I5
sg22
I1
sg23
I11
sg24
g810
sbag0
(g16
g2
Ntp821
Rp822
(dp823
g20
I00
sg21
I6
sg22
I1
sg23
I11
sg24
g810
sbag0
(g16
g2
Ntp824
Rp825
(dp826
g20
I00
sg21
I7
sg22
I1
sg23
I11
sg24
g810
sbag0
(g16
g2
Ntp827
Rp828
(dp829
g20
I01
sg21
I8
sg22
I5
sg23
I11
sg24
g52
sbag0
(g16
g2
Ntp830
Rp831
(dp832
g20
I01
sg21
I9
sg22
I4
sg23
I11
sg24
g52
sbag0
(g16
g2
Ntp833
Rp834
(dp835
g20
I00
sg21
I10
sg22
I1
sg23
I11
sg24
g0
(g25
g2
Ntp836
Rp837
(dp838
g29
I45
sg30
g0
(g31
g2
Ntp839
Rp840
(dp841
g35
I0
sg36
I0
sg37
g38
sbsbsbag0
(g16
g2
Ntp842
Rp843
(dp844
g20
I00
sg21
I11
sg22
I1
sg23
I11
sg24
g837
sbag0
(g16
g2
Ntp845
Rp846
(dp847
g20
I00
sg21
I12
sg22
I1
sg23
I11
sg24
g837
sbag0
(g16
g2
Ntp848
Rp849
(dp850
g20
I00
sg21
I13
sg22
I1
sg23
I11
sg24
g837
sbag0
(g16
g2
Ntp851
Rp852
(dp853
g20
I00
sg21
I14
sg22
I1
sg23
I11
sg24
g837
sbag0
(g16
g2
Ntp854
Rp855
(dp856
g20
I01
sg21
I15
sg22
I2
sg23
I11
sg24
g52
sbag0
(g16
g2
Ntp857
Rp858
(dp859
g20
I01
sg21
I16
sg22
I6
sg23
I11
sg24
g112
sbag0
(g16
g2
Ntp860
Rp861
(dp862
g20
I01
sg21
I17
sg22
I6
sg23
I11
sg24
g121
sbaa(lp863
g0
(g16
g2
Ntp864
Rp865
(dp866
g20
I00
sg21
I0
sg22
I1
sg23
I12
sg24
g27
sbag0
(g16
g2
Ntp867
Rp868
(dp869
g20
I00
sg21
I1
sg22
I1
sg23
I12
sg24
g43
sbag0
(g16
g2
Ntp870
Rp871
(dp872
g20
I01
sg21
I2
sg22
I3
sg23
I12
sg24
g52
sbag0
(g16
g2
Ntp873
Rp874
(dp875
g20
I00
sg21
I3
sg22
I1
sg23
I12
sg24
g0
(g25
g2
Ntp876
Rp877
(dp878
g29
I48
sg30
g0
(g31
g2
Ntp879
Rp880
(dp881
g35
I0
sg36
I0
sg37
g38
sbsbsbag0
(g16
g2
Ntp882
Rp883
(dp884
g20
I00
sg21
I4
sg22
I1
sg23
I12
sg24
g877
sbag0
(g16
g2
Ntp885
Rp886
(dp887
g20
I00
sg21
I5
sg22
I1
sg23
I12
sg24
g877
sbag0
(g16
g2
Ntp888
Rp889
(dp890
g20
I00
sg21
I6
sg22
I1
sg23
I12
sg24
g877
sbag0
(g16
g2
Ntp891
Rp892
(dp893
g20
I00
sg21
I7
sg22
I1
sg23
I12
sg24
g877
sbag0
(g16
g2
Ntp894
Rp895
(dp896
g20
I01
sg21
I8
sg22
I5
sg23
I12
sg24
g52
sbag0
(g16
g2
Ntp897
Rp898
(dp899
g20
I01
sg21
I9
sg22
I4
sg23
I12
sg24
g52
sbag0
(g16
g2
Ntp900
Rp901
(dp902
g20
I00
sg21
I10
sg22
I1
sg23
I12
sg24
g0
(g25
g2
Ntp903
Rp904
(dp905
g29
I49
sg30
g0
(g31
g2
Ntp906
Rp907
(dp908
g35
I0
sg36
I0
sg37
g38
sbsbsbag0
(g16
g2
Ntp909
Rp910
(dp911
g20
I00
sg21
I11
sg22
I1
sg23
I12
sg24
g904
sbag0
(g16
g2
Ntp912
Rp913
(dp914
g20
I00
sg21
I12
sg22
I1
sg23
I12
sg24
g904
sbag0
(g16
g2
Ntp915
Rp916
(dp917
g20
I00
sg21
I13
sg22
I1
sg23
I12
sg24
g904
sbag0
(g16
g2
Ntp918
Rp919
(dp920
g20
I00
sg21
I14
sg22
I1
sg23
I12
sg24
g904
sbag0
(g16
g2
Ntp921
Rp922
(dp923
g20
I01
sg21
I15
sg22
I2
sg23
I12
sg24
g52
sbag0
(g16
g2
Ntp924
Rp925
(dp926
g20
I00
sg21
I16
sg22
I1
sg23
I12
sg24
g112
sbag0
(g16
g2
Ntp927
Rp928
(dp929
g20
I00
sg21
I17
sg22
I1
sg23
I12
sg24
g121
sbaa(lp930
g0
(g16
g2
Ntp931
Rp932
(dp933
g20
I00
sg21
I0
sg22
I1
sg23
I13
sg24
g27
sbag0
(g16
g2
Ntp934
Rp935
(dp936
g20
I00
sg21
I1
sg22
I1
sg23
I13
sg24
g43
sbag0
(g16
g2
Ntp937
Rp938
(dp939
g20
I01
sg21
I2
sg22
I3
sg23
I13
sg24
g52
sbag0
(g16
g2
Ntp940
Rp941
(dp942
g20
I00
sg21
I3
sg22
I1
sg23
I13
sg24
g0
(g25
g2
Ntp943
Rp944
(dp945
g29
I52
sg30
g0
(g31
g2
Ntp946
Rp947
(dp948
g35
I0
sg36
I0
sg37
g38
sbsbsbag0
(g16
g2
Ntp949
Rp950
(dp951
g20
I00
sg21
I4
sg22
I1
sg23
I13
sg24
g944
sbag0
(g16
g2
Ntp952
Rp953
(dp954
g20
I00
sg21
I5
sg22
I1
sg23
I13
sg24
g944
sbag0
(g16
g2
Ntp955
Rp956
(dp957
g20
I00
sg21
I6
sg22
I1
sg23
I13
sg24
g944
sbag0
(g16
g2
Ntp958
Rp959
(dp960
g20
I00
sg21
I7
sg22
I1
sg23
I13
sg24
g944
sbag0
(g16
g2
Ntp961
Rp962
(dp963
g20
I01
sg21
I8
sg22
I5
sg23
I13
sg24
g52
sbag0
(g16
g2
Ntp964
Rp965
(dp966
g20
I01
sg21
I9
sg22
I4
sg23
I13
sg24
g52
sbag0
(g16
g2
Ntp967
Rp968
(dp969
g20
I00
sg21
I10
sg22
I1
sg23
I13
sg24
g0
(g25
g2
Ntp970
Rp971
(dp972
g29
I53
sg30
g0
(g31
g2
Ntp973
Rp974
(dp975
g35
I0
sg36
I0
sg37
g38
sbsbsbag0
(g16
g2
Ntp976
Rp977
(dp978
g20
I00
sg21
I11
sg22
I1
sg23
I13
sg24
g971
sbag0
(g16
g2
Ntp979
Rp980
(dp981
g20
I00
sg21
I12
sg22
I1
sg23
I13
sg24
g971
sbag0
(g16
g2
Ntp982
Rp983
(dp984
g20
I00
sg21
I13
sg22
I1
sg23
I13
sg24
g971
sbag0
(g16
g2
Ntp985
Rp986
(dp987
g20
I00
sg21
I14
sg22
I1
sg23
I13
sg24
g971
sbag0
(g16
g2
Ntp988
Rp989
(dp990
g20
I01
sg21
I15
sg22
I2
sg23
I13
sg24
g52
sbag0
(g16
g2
Ntp991
Rp992
(dp993
g20
I00
sg21
I16
sg22
I1
sg23
I13
sg24
g112
sbag0
(g16
g2
Ntp994
Rp995
(dp996
g20
I00
sg21
I17
sg22
I1
sg23
I13
sg24
g121
sbaa(lp997
g0
(g16
g2
Ntp998
Rp999
(dp1000
g20
I00
sg21
I0
sg22
I1
sg23
I14
sg24
g27
sbag0
(g16
g2
Ntp1001
Rp1002
(dp1003
g20
I00
sg21
I1
sg22
I1
sg23
I14
sg24
g43
sbag0
(g16
g2
Ntp1004
Rp1005
(dp1006
g20
I01
sg21
I2
sg22
I3
sg23
I14
sg24
g52
sbag0
(g16
g2
Ntp1007
Rp1008
(dp1009
g20
I00
sg21
I3
sg22
I1
sg23
I14
sg24
g0
(g25
g2
Ntp1010
Rp1011
(dp1012
g29
I56
sg30
g0
(g31
g2
Ntp1013
Rp1014
(dp1015
g35
I0
sg36
I0
sg37
g38
sbsbsbag0
(g16
g2
Ntp1016
Rp1017
(dp1018
g20
I00
sg21
I4
sg22
I1
sg23
I14
sg24
g1011
sbag0
(g16
g2
Ntp1019
Rp1020
(dp1021
g20
I00
sg21
I5
sg22
I1
sg23
I14
sg24
g1011
sbag0
(g16
g2
Ntp1022
Rp1023
(dp1024
g20
I00
sg21
I6
sg22
I1
sg23
I14
sg24
g1011
sbag0
(g16
g2
Ntp1025
Rp1026
(dp1027
g20
I00
sg21
I7
sg22
I1
sg23
I14
sg24
g1011
sbag0
(g16
g2
Ntp1028
Rp1029
(dp1030
g20
I01
sg21
I8
sg22
I5
sg23
I14
sg24
g52
sbag0
(g16
g2
Ntp1031
Rp1032
(dp1033
g20
I01
sg21
I9
sg22
I4
sg23
I14
sg24
g52
sbag0
(g16
g2
Ntp1034
Rp1035
(dp1036
g20
I00
sg21
I10
sg22
I1
sg23
I14
sg24
g0
(g25
g2
Ntp1037
Rp1038
(dp1039
g29
I57
sg30
g0
(g31
g2
Ntp1040
Rp1041
(dp1042
g35
I0
sg36
I0
sg37
g38
sbsbsbag0
(g16
g2
Ntp1043
Rp1044
(dp1045
g20
I00
sg21
I11
sg22
I1
sg23
I14
sg24
g1038
sbag0
(g16
g2
Ntp1046
Rp1047
(dp1048
g20
I00
sg21
I12
sg22
I1
sg23
I14
sg24
g1038
sbag0
(g16
g2
Ntp1049
Rp1050
(dp1051
g20
I00
sg21
I13
sg22
I1
sg23
I14
sg24
g1038
sbag0
(g16
g2
Ntp1052
Rp1053
(dp1054
g20
I00
sg21
I14
sg22
I1
sg23
I14
sg24
g1038
sbag0
(g16
g2
Ntp1055
Rp1056
(dp1057
g20
I01
sg21
I15
sg22
I2
sg23
I14
sg24
g52
sbag0
(g16
g2
Ntp1058
Rp1059
(dp1060
g20
I00
sg21
I16
sg22
I1
sg23
I14
sg24
g112
sbag0
(g16
g2
Ntp1061
Rp1062
(dp1063
g20
I00
sg21
I17
sg22
I1
sg23
I14
sg24
g121
sbaa(lp1064
g0
(g16
g2
Ntp1065
Rp1066
(dp1067
g20
I00
sg21
I0
sg22
I1
sg23
I15
sg24
g27
sbag0
(g16
g2
Ntp1068
Rp1069
(dp1070
g20
I00
sg21
I1
sg22
I1
sg23
I15
sg24
g43
sbag0
(g16
g2
Ntp1071
Rp1072
(dp1073
g20
I01
sg21
I2
sg22
I3
sg23
I15
sg24
g52
sbag0
(g16
g2
Ntp1074
Rp1075
(dp1076
g20
I00
sg21
I3
sg22
I1
sg23
I15
sg24
g0
(g25
g2
Ntp1077
Rp1078
(dp1079
g29
I60
sg30
g0
(g31
g2
Ntp1080
Rp1081
(dp1082
g35
I0
sg36
I0
sg37
g38
sbsbsbag0
(g16
g2
Ntp1083
Rp1084
(dp1085
g20
I00
sg21
I4
sg22
I1
sg23
I15
sg24
g1078
sbag0
(g16
g2
Ntp1086
Rp1087
(dp1088
g20
I00
sg21
I5
sg22
I1
sg23
I15
sg24
g1078
sbag0
(g16
g2
Ntp1089
Rp1090
(dp1091
g20
I00
sg21
I6
sg22
I1
sg23
I15
sg24
g1078
sbag0
(g16
g2
Ntp1092
Rp1093
(dp1094
g20
I00
sg21
I7
sg22
I1
sg23
I15
sg24
g1078
sbag0
(g16
g2
Ntp1095
Rp1096
(dp1097
g20
I01
sg21
I8
sg22
I5
sg23
I15
sg24
g52
sbag0
(g16
g2
Ntp1098
Rp1099
(dp1100
g20
I01
sg21
I9
sg22
I4
sg23
I15
sg24
g52
sbag0
(g16
g2
Ntp1101
Rp1102
(dp1103
g20
I00
sg21
I10
sg22
I1
sg23
I15
sg24
g0
(g25
g2
Ntp1104
Rp1105
(dp1106
g29
I61
sg30
g0
(g31
g2
Ntp1107
Rp1108
(dp1109
g35
I0
sg36
I0
sg37
g38
sbsbsbag0
(g16
g2
Ntp1110
Rp1111
(dp1112
g20
I00
sg21
I11
sg22
I1
sg23
I15
sg24
g1105
sbag0
(g16
g2
Ntp1113
Rp1114
(dp1115
g20
I00
sg21
I12
sg22
I1
sg23
I15
sg24
g1105
sbag0
(g16
g2
Ntp1116
Rp1117
(dp1118
g20
I00
sg21
I13
sg22
I1
sg23
I15
sg24
g1105
sbag0
(g16
g2
Ntp1119
Rp1120
(dp1121
g20
I00
sg21
I14
sg22
I1
sg23
I15
sg24
g1105
sbag0
(g16
g2
Ntp1122
Rp1123
(dp1124
g20
I01
sg21
I15
sg22
I2
sg23
I15
sg24
g52
sbag0
(g16
g2
Ntp1125
Rp1126
(dp1127
g20
I00
sg21
I16
sg22
I1
sg23
I15
sg24
g112
sbag0
(g16
g2
Ntp1128
Rp1129
(dp1130
g20
I00
sg21
I17
sg22
I1
sg23
I15
sg24
g121
sbaa(lp1131
g0
(g16
g2
Ntp1132
Rp1133
(dp1134
g20
I00
sg21
I0
sg22
I1
sg23
I16
sg24
g27
sbag0
(g16
g2
Ntp1135
Rp1136
(dp1137
g20
I00
sg21
I1
sg22
I1
sg23
I16
sg24
g43
sbag0
(g16
g2
Ntp1138
Rp1139
(dp1140
g20
I01
sg21
I2
sg22
I3
sg23
I16
sg24
g52
sbag0
(g16
g2
Ntp1141
Rp1142
(dp1143
g20
I00
sg21
I3
sg22
I1
sg23
I16
sg24
g0
(g25
g2
Ntp1144
Rp1145
(dp1146
g29
I64
sg30
g0
(g31
g2
Ntp1147
Rp1148
(dp1149
g35
I0
sg36
I0
sg37
g38
sbsbsbag0
(g16
g2
Ntp1150
Rp1151
(dp1152
g20
I00
sg21
I4
sg22
I1
sg23
I16
sg24
g1145
sbag0
(g16
g2
Ntp1153
Rp1154
(dp1155
g20
I00
sg21
I5
sg22
I1
sg23
I16
sg24
g1145
sbag0
(g16
g2
Ntp1156
Rp1157
(dp1158
g20
I00
sg21
I6
sg22
I1
sg23
I16
sg24
g1145
sbag0
(g16
g2
Ntp1159
Rp1160
(dp1161
g20
I00
sg21
I7
sg22
I1
sg23
I16
sg24
g1145
sbag0
(g16
g2
Ntp1162
Rp1163
(dp1164
g20
I01
sg21
I8
sg22
I5
sg23
I16
sg24
g52
sbag0
(g16
g2
Ntp1165
Rp1166
(dp1167
g20
I01
sg21
I9
sg22
I4
sg23
I16
sg24
g52
sbag0
(g16
g2
Ntp1168
Rp1169
(dp1170
g20
I00
sg21
I10
sg22
I1
sg23
I16
sg24
g0
(g25
g2
Ntp1171
Rp1172
(dp1173
g29
I65
sg30
g0
(g31
g2
Ntp1174
Rp1175
(dp1176
g35
I0
sg36
I0
sg37
g38
sbsbsbag0
(g16
g2
Ntp1177
Rp1178
(dp1179
g20
I00
sg21
I11
sg22
I1
sg23
I16
sg24
g1172
sbag0
(g16
g2
Ntp1180
Rp1181
(dp1182
g20
I00
sg21
I12
sg22
I1
sg23
I16
sg24
g1172
sbag0
(g16
g2
Ntp1183
Rp1184
(dp1185
g20
I00
sg21
I13
sg22
I1
sg23
I16
sg24
g1172
sbag0
(g16
g2
Ntp1186
Rp1187
(dp1188
g20
I00
sg21
I14
sg22
I1
sg23
I16
sg24
g1172
sbag0
(g16
g2
Ntp1189
Rp1190
(dp1191
g20
I01
sg21
I15
sg22
I2
sg23
I16
sg24
g52
sbag0
(g16
g2
Ntp1192
Rp1193
(dp1194
g20
I00
sg21
I16
sg22
I1
sg23
I16
sg24
g112
sbag0
(g16
g2
Ntp1195
Rp1196
(dp1197
g20
I00
sg21
I17
sg22
I1
sg23
I16
sg24
g121
sbaa(lp1198
g0
(g16
g2
Ntp1199
Rp1200
(dp1201
g20
I01
sg21
I0
sg22
I6
sg23
I17
sg24
g27
sbag0
(g16
g2
Ntp1202
Rp1203
(dp1204
g20
I01
sg21
I1
sg22
I6
sg23
I17
sg24
g43
sbag0
(g16
g2
Ntp1205
Rp1206
(dp1207
g20
I01
sg21
I2
sg22
I3
sg23
I17
sg24
g52
sbag0
(g16
g2
Ntp1208
Rp1209
(dp1210
g20
I00
sg21
I3
sg22
I1
sg23
I17
sg24
g0
(g25
g2
Ntp1211
Rp1212
(dp1213
g29
I68
sg30
g0
(g31
g2
Ntp1214
Rp1215
(dp1216
g35
I0
sg36
I0
sg37
g38
sbsbsbag0
(g16
g2
Ntp1217
Rp1218
(dp1219
g20
I00
sg21
I4
sg22
I1
sg23
I17
sg24
g1212
sbag0
(g16
g2
Ntp1220
Rp1221
(dp1222
g20
I00
sg21
I5
sg22
I1
sg23
I17
sg24
g1212
sbag0
(g16
g2
Ntp1223
Rp1224
(dp1225
g20
I00
sg21
I6
sg22
I1
sg23
I17
sg24
g1212
sbag0
(g16
g2
Ntp1226
Rp1227
(dp1228
g20
I00
sg21
I7
sg22
I1
sg23
I17
sg24
g1212
sbag0
(g16
g2
Ntp1229
Rp1230
(dp1231
g20
I01
sg21
I8
sg22
I5
sg23
I17
sg24
g52
sbag0
(g16
g2
Ntp1232
Rp1233
(dp1234
g20
I01
sg21
I9
sg22
I4
sg23
I17
sg24
g52
sbag0
(g16
g2
Ntp1235
Rp1236
(dp1237
g20
I00
sg21
I10
sg22
I1
sg23
I17
sg24
g0
(g25
g2
Ntp1238
Rp1239
(dp1240
g29
I69
sg30
g0
(g31
g2
Ntp1241
Rp1242
(dp1243
g35
I0
sg36
I0
sg37
g38
sbsbsbag0
(g16
g2
Ntp1244
Rp1245
(dp1246
g20
I00
sg21
I11
sg22
I1
sg23
I17
sg24
g1239
sbag0
(g16
g2
Ntp1247
Rp1248
(dp1249
g20
I00
sg21
I12
sg22
I1
sg23
I17
sg24
g1239
sbag0
(g16
g2
Ntp1250
Rp1251
(dp1252
g20
I00
sg21
I13
sg22
I1
sg23
I17
sg24
g1239
sbag0
(g16
g2
Ntp1253
Rp1254
(dp1255
g20
I00
sg21
I14
sg22
I1
sg23
I17
sg24
g1239
sbag0
(g16
g2
Ntp1256
Rp1257
(dp1258
g20
I01
sg21
I15
sg22
I2
sg23
I17
sg24
g52
sbag0
(g16
g2
Ntp1259
Rp1260
(dp1261
g20
I01
sg21
I16
sg22
I6
sg23
I17
sg24
g112
sbag0
(g16
g2
Ntp1262
Rp1263
(dp1264
g20
I01
sg21
I17
sg22
I6
sg23
I17
sg24
g121
sbaa(lp1265
g0
(g16
g2
Ntp1266
Rp1267
(dp1268
g20
I00
sg21
I0
sg22
I1
sg23
I18
sg24
g27
sbag0
(g16
g2
Ntp1269
Rp1270
(dp1271
g20
I00
sg21
I1
sg22
I1
sg23
I18
sg24
g43
sbag0
(g16
g2
Ntp1272
Rp1273
(dp1274
g20
I01
sg21
I2
sg22
I3
sg23
I18
sg24
g52
sbag0
(g16
g2
Ntp1275
Rp1276
(dp1277
g20
I00
sg21
I3
sg22
I1
sg23
I18
sg24
g0
(g25
g2
Ntp1278
Rp1279
(dp1280
g29
I72
sg30
g0
(g31
g2
Ntp1281
Rp1282
(dp1283
g35
I0
sg36
I0
sg37
g38
sbsbsbag0
(g16
g2
Ntp1284
Rp1285
(dp1286
g20
I00
sg21
I4
sg22
I1
sg23
I18
sg24
g1279
sbag0
(g16
g2
Ntp1287
Rp1288
(dp1289
g20
I00
sg21
I5
sg22
I1
sg23
I18
sg24
g1279
sbag0
(g16
g2
Ntp1290
Rp1291
(dp1292
g20
I00
sg21
I6
sg22
I1
sg23
I18
sg24
g1279
sbag0
(g16
g2
Ntp1293
Rp1294
(dp1295
g20
I00
sg21
I7
sg22
I1
sg23
I18
sg24
g1279
sbag0
(g16
g2
Ntp1296
Rp1297
(dp1298
g20
I01
sg21
I8
sg22
I5
sg23
I18
sg24
g52
sbag0
(g16
g2
Ntp1299
Rp1300
(dp1301
g20
I01
sg21
I9
sg22
I4
sg23
I18
sg24
g52
sbag0
(g16
g2
Ntp1302
Rp1303
(dp1304
g20
I00
sg21
I10
sg22
I1
sg23
I18
sg24
g0
(g25
g2
Ntp1305
Rp1306
(dp1307
g29
I73
sg30
g0
(g31
g2
Ntp1308
Rp1309
(dp1310
g35
I0
sg36
I0
sg37
g38
sbsbsbag0
(g16
g2
Ntp1311
Rp1312
(dp1313
g20
I00
sg21
I11
sg22
I1
sg23
I18
sg24
g1306
sbag0
(g16
g2
Ntp1314
Rp1315
(dp1316
g20
I00
sg21
I12
sg22
I1
sg23
I18
sg24
g1306
sbag0
(g16
g2
Ntp1317
Rp1318
(dp1319
g20
I00
sg21
I13
sg22
I1
sg23
I18
sg24
g1306
sbag0
(g16
g2
Ntp1320
Rp1321
(dp1322
g20
I00
sg21
I14
sg22
I1
sg23
I18
sg24
g1306
sbag0
(g16
g2
Ntp1323
Rp1324
(dp1325
g20
I01
sg21
I15
sg22
I2
sg23
I18
sg24
g52
sbag0
(g16
g2
Ntp1326
Rp1327
(dp1328
g20
I00
sg21
I16
sg22
I1
sg23
I18
sg24
g112
sbag0
(g16
g2
Ntp1329
Rp1330
(dp1331
g20
I00
sg21
I17
sg22
I1
sg23
I18
sg24
g121
sbaa(lp1332
g0
(g16
g2
Ntp1333
Rp1334
(dp1335
g20
I00
sg21
I0
sg22
I1
sg23
I19
sg24
g27
sbag0
(g16
g2
Ntp1336
Rp1337
(dp1338
g20
I00
sg21
I1
sg22
I1
sg23
I19
sg24
g43
sbag0
(g16
g2
Ntp1339
Rp1340
(dp1341
g20
I01
sg21
I2
sg22
I3
sg23
I19
sg24
g52
sbag0
(g16
g2
Ntp1342
Rp1343
(dp1344
g20
I00
sg21
I3
sg22
I1
sg23
I19
sg24
g0
(g25
g2
Ntp1345
Rp1346
(dp1347
g29
I76
sg30
g0
(g31
g2
Ntp1348
Rp1349
(dp1350
g35
I0
sg36
I0
sg37
g38
sbsbsbag0
(g16
g2
Ntp1351
Rp1352
(dp1353
g20
I00
sg21
I4
sg22
I1
sg23
I19
sg24
g1346
sbag0
(g16
g2
Ntp1354
Rp1355
(dp1356
g20
I00
sg21
I5
sg22
I1
sg23
I19
sg24
g1346
sbag0
(g16
g2
Ntp1357
Rp1358
(dp1359
g20
I00
sg21
I6
sg22
I1
sg23
I19
sg24
g1346
sbag0
(g16
g2
Ntp1360
Rp1361
(dp1362
g20
I01
sg21
I7
sg22
I1
sg23
I19
sg24
g1346
sbag0
(g16
g2
Ntp1363
Rp1364
(dp1365
g20
I01
sg21
I8
sg22
I5
sg23
I19
sg24
g52
sbag0
(g16
g2
Ntp1366
Rp1367
(dp1368
g20
I01
sg21
I9
sg22
I4
sg23
I19
sg24
g52
sbag0
(g16
g2
Ntp1369
Rp1370
(dp1371
g20
I01
sg21
I10
sg22
I1
sg23
I19
sg24
g0
(g25
g2
Ntp1372
Rp1373
(dp1374
g29
I77
sg30
g0
(g31
g2
Ntp1375
Rp1376
(dp1377
g35
I0
sg36
I0
sg37
g38
sbsbsbag0
(g16
g2
Ntp1378
Rp1379
(dp1380
g20
I00
sg21
I11
sg22
I1
sg23
I19
sg24
g1373
sbag0
(g16
g2
Ntp1381
Rp1382
(dp1383
g20
I00
sg21
I12
sg22
I1
sg23
I19
sg24
g1373
sbag0
(g16
g2
Ntp1384
Rp1385
(dp1386
g20
I01
sg21
I13
sg22
I1
sg23
I19
sg24
g1373
sbag0
(g16
g2
Ntp1387
Rp1388
(dp1389
g20
I00
sg21
I14
sg22
I1
sg23
I19
sg24
g1373
sbag0
(g16
g2
Ntp1390
Rp1391
(dp1392
g20
I01
sg21
I15
sg22
I2
sg23
I19
sg24
g52
sbag0
(g16
g2
Ntp1393
Rp1394
(dp1395
g20
I00
sg21
I16
sg22
I1
sg23
I19
sg24
g112
sbag0
(g16
g2
Ntp1396
Rp1397
(dp1398
g20
I00
sg21
I17
sg22
I1
sg23
I19
sg24
g121
sbaa(lp1399
g0
(g16
g2
Ntp1400
Rp1401
(dp1402
g20
I01
sg21
I0
sg22
I1
sg23
I20
sg24
g27
sbag0
(g16
g2
Ntp1403
Rp1404
(dp1405
g20
I00
sg21
I1
sg22
I1
sg23
I20
sg24
g43
sbag0
(g16
g2
Ntp1406
Rp1407
(dp1408
g20
I01
sg21
I2
sg22
I3
sg23
I20
sg24
g52
sbag0
(g16
g2
Ntp1409
Rp1410
(dp1411
g20
I01
sg21
I3
sg22
I1
sg23
I20
sg24
g0
(g25
g2
Ntp1412
Rp1413
(dp1414
g29
I80
sg30
g0
(g31
g2
Ntp1415
Rp1416
(dp1417
g35
I0
sg36
I0
sg37
g38
sbsbsbag0
(g16
g2
Ntp1418
Rp1419
(dp1420
g20
I00
sg21
I4
sg22
I1
sg23
I20
sg24
g1413
sbag0
(g16
g2
Ntp1421
Rp1422
(dp1423
g20
I00
sg21
I5
sg22
I1
sg23
I20
sg24
g1413
sbag0
(g16
g2
Ntp1424
Rp1425
(dp1426
g20
I00
sg21
I6
sg22
I1
sg23
I20
sg24
g1413
sbag0
(g16
g2
Ntp1427
Rp1428
(dp1429
g20
I01
sg21
I7
sg22
I1
sg23
I20
sg24
g1413
sbag0
(g16
g2
Ntp1430
Rp1431
(dp1432
g20
I01
sg21
I8
sg22
I5
sg23
I20
sg24
g52
sbag0
(g16
g2
Ntp1433
Rp1434
(dp1435
g20
I01
sg21
I9
sg22
I4
sg23
I20
sg24
g52
sbag0
(g16
g2
Ntp1436
Rp1437
(dp1438
g20
I01
sg21
I10
sg22
I1
sg23
I20
sg24
g0
(g25
g2
Ntp1439
Rp1440
(dp1441
g29
I81
sg30
g0
(g31
g2
Ntp1442
Rp1443
(dp1444
g35
I0
sg36
I0
sg37
g38
sbsbsbag0
(g16
g2
Ntp1445
Rp1446
(dp1447
g20
I00
sg21
I11
sg22
I1
sg23
I20
sg24
g1440
sbag0
(g16
g2
Ntp1448
Rp1449
(dp1450
g20
I01
sg21
I12
sg22
I1
sg23
I20
sg24
g1440
sbag0
(g16
g2
Ntp1451
Rp1452
(dp1453
g20
I00
sg21
I13
sg22
I1
sg23
I20
sg24
g1440
sbag0
(g16
g2
Ntp1454
Rp1455
(dp1456
g20
I01
sg21
I14
sg22
I1
sg23
I20
sg24
g1440
sbag0
(g16
g2
Ntp1457
Rp1458
(dp1459
g20
I01
sg21
I15
sg22
I2
sg23
I20
sg24
g52
sbag0
(g16
g2
Ntp1460
Rp1461
(dp1462
g20
I00
sg21
I16
sg22
I1
sg23
I20
sg24
g112
sbag0
(g16
g2
Ntp1463
Rp1464
(dp1465
g20
I01
sg21
I17
sg22
I1
sg23
I20
sg24
g121
sbaa(lp1466
g0
(g16
g2
Ntp1467
Rp1468
(dp1469
g20
I00
sg21
I0
sg22
I1
sg23
I21
sg24
g27
sbag0
(g16
g2
Ntp1470
Rp1471
(dp1472
g20
I00
sg21
I1
sg22
I1
sg23
I21
sg24
g43
sbag0
(g16
g2
Ntp1473
Rp1474
(dp1475
g20
I01
sg21
I2
sg22
I3
sg23
I21
sg24
g52
sbag0
(g16
g2
Ntp1476
Rp1477
(dp1478
g20
I00
sg21
I3
sg22
I1
sg23
I21
sg24
g0
(g25
g2
Ntp1479
Rp1480
(dp1481
g29
I84
sg30
g0
(g31
g2
Ntp1482
Rp1483
(dp1484
g35
I0
sg36
I0
sg37
g38
sbsbsbag0
(g16
g2
Ntp1485
Rp1486
(dp1487
g20
I00
sg21
I4
sg22
I1
sg23
I21
sg24
g1480
sbag0
(g16
g2
Ntp1488
Rp1489
(dp1490
g20
I00
sg21
I5
sg22
I1
sg23
I21
sg24
g1480
sbag0
(g16
g2
Ntp1491
Rp1492
(dp1493
g20
I01
sg21
I6
sg22
I1
sg23
I21
sg24
g1480
sbag0
(g16
g2
Ntp1494
Rp1495
(dp1496
g20
I01
sg21
I7
sg22
I1
sg23
I21
sg24
g1480
sbag0
(g16
g2
Ntp1497
Rp1498
(dp1499
g20
I01
sg21
I8
sg22
I5
sg23
I21
sg24
g52
sbag0
(g16
g2
Ntp1500
Rp1501
(dp1502
g20
I01
sg21
I9
sg22
I4
sg23
I21
sg24
g52
sbag0
(g16
g2
Ntp1503
Rp1504
(dp1505
g20
I01
sg21
I10
sg22
I1
sg23
I21
sg24
g0
(g25
g2
Ntp1506
Rp1507
(dp1508
g29
I85
sg30
g0
(g31
g2
Ntp1509
Rp1510
(dp1511
g35
I0
sg36
I0
sg37
g38
sbsbsbag0
(g16
g2
Ntp1512
Rp1513
(dp1514
g20
I00
sg21
I11
sg22
I1
sg23
I21
sg24
g1507
sbag0
(g16
g2
Ntp1515
Rp1516
(dp1517
g20
I01
sg21
I12
sg22
I1
sg23
I21
sg24
g1507
sbag0
(g16
g2
Ntp1518
Rp1519
(dp1520
g20
I00
sg21
I13
sg22
I1
sg23
I21
sg24
g1507
sbag0
(g16
g2
Ntp1521
Rp1522
(dp1523
g20
I00
sg21
I14
sg22
I1
sg23
I21
sg24
g1507
sbag0
(g16
g2
Ntp1524
Rp1525
(dp1526
g20
I01
sg21
I15
sg22
I2
sg23
I21
sg24
g52
sbag0
(g16
g2
Ntp1527
Rp1528
(dp1529
g20
I00
sg21
I16
sg22
I1
sg23
I21
sg24
g112
sbag0
(g16
g2
Ntp1530
Rp1531
(dp1532
g20
I00
sg21
I17
sg22
I1
sg23
I21
sg24
g121
sbaa(lp1533
g0
(g16
g2
Ntp1534
Rp1535
(dp1536
g20
I00
sg21
I0
sg22
I1
sg23
I22
sg24
g27
sbag0
(g16
g2
Ntp1537
Rp1538
(dp1539
g20
I00
sg21
I1
sg22
I1
sg23
I22
sg24
g43
sbag0
(g16
g2
Ntp1540
Rp1541
(dp1542
g20
I01
sg21
I2
sg22
I3
sg23
I22
sg24
g52
sbag0
(g16
g2
Ntp1543
Rp1544
(dp1545
g20
I00
sg21
I3
sg22
I1
sg23
I22
sg24
g0
(g25
g2
Ntp1546
Rp1547
(dp1548
g29
I88
sg30
g0
(g31
g2
Ntp1549
Rp1550
(dp1551
g35
I0
sg36
I0
sg37
g38
sbsbsbag0
(g16
g2
Ntp1552
Rp1553
(dp1554
g20
I00
sg21
I4
sg22
I1
sg23
I22
sg24
g1547
sbag0
(g16
g2
Ntp1555
Rp1556
(dp1557
g20
I00
sg21
I5
sg22
I1
sg23
I22
sg24
g1547
sbag0
(g16
g2
Ntp1558
Rp1559
(dp1560
g20
I00
sg21
I6
sg22
I1
sg23
I22
sg24
g1547
sbag0
(g16
g2
Ntp1561
Rp1562
(dp1563
g20
I01
sg21
I7
sg22
I1
sg23
I22
sg24
g1547
sbag0
(g16
g2
Ntp1564
Rp1565
(dp1566
g20
I01
sg21
I8
sg22
I5
sg23
I22
sg24
g52
sbag0
(g16
g2
Ntp1567
Rp1568
(dp1569
g20
I01
sg21
I9
sg22
I4
sg23
I22
sg24
g52
sbag0
(g16
g2
Ntp1570
Rp1571
(dp1572
g20
I01
sg21
I10
sg22
I1
sg23
I22
sg24
g0
(g25
g2
Ntp1573
Rp1574
(dp1575
g29
I89
sg30
g0
(g31
g2
Ntp1576
Rp1577
(dp1578
g35
I0
sg36
I0
sg37
g38
sbsbsbag0
(g16
g2
Ntp1579
Rp1580
(dp1581
g20
I00
sg21
I11
sg22
I1
sg23
I22
sg24
g1574
sbag0
(g16
g2
Ntp1582
Rp1583
(dp1584
g20
I00
sg21
I12
sg22
I1
sg23
I22
sg24
g1574
sbag0
(g16
g2
Ntp1585
Rp1586
(dp1587
g20
I00
sg21
I13
sg22
I1
sg23
I22
sg24
g1574
sbag0
(g16
g2
Ntp1588
Rp1589
(dp1590
g20
I01
sg21
I14
sg22
I1
sg23
I22
sg24
g1574
sbag0
(g16
g2
Ntp1591
Rp1592
(dp1593
g20
I01
sg21
I15
sg22
I2
sg23
I22
sg24
g52
sbag0
(g16
g2
Ntp1594
Rp1595
(dp1596
g20
I00
sg21
I16
sg22
I1
sg23
I22
sg24
g112
sbag0
(g16
g2
Ntp1597
Rp1598
(dp1599
g20
I01
sg21
I17
sg22
I1
sg23
I22
sg24
g121
sbaa(lp1600
g0
(g16
g2
Ntp1601
Rp1602
(dp1603
g20
I01
sg21
I0
sg22
I6
sg23
I23
sg24
g27
sbag0
(g16
g2
Ntp1604
Rp1605
(dp1606
g20
I01
sg21
I1
sg22
I6
sg23
I23
sg24
g43
sbag0
(g16
g2
Ntp1607
Rp1608
(dp1609
g20
I01
sg21
I2
sg22
I3
sg23
I23
sg24
g52
sbag0
(g16
g2
Ntp1610
Rp1611
(dp1612
g20
I00
sg21
I3
sg22
I1
sg23
I23
sg24
g0
(g25
g2
Ntp1613
Rp1614
(dp1615
g29
I92
sg30
g0
(g31
g2
Ntp1616
Rp1617
(dp1618
g35
I0
sg36
I0
sg37
g38
sbsbsbag0
(g16
g2
Ntp1619
Rp1620
(dp1621
g20
I00
sg21
I4
sg22
I1
sg23
I23
sg24
g1614
sbag0
(g16
g2
Ntp1622
Rp1623
(dp1624
g20
I00
sg21
I5
sg22
I1
sg23
I23
sg24
g1614
sbag0
(g16
g2
Ntp1625
Rp1626
(dp1627
g20
I00
sg21
I6
sg22
I1
sg23
I23
sg24
g1614
sbag0
(g16
g2
Ntp1628
Rp1629
(dp1630
g20
I00
sg21
I7
sg22
I1
sg23
I23
sg24
g1614
sbag0
(g16
g2
Ntp1631
Rp1632
(dp1633
g20
I01
sg21
I8
sg22
I5
sg23
I23
sg24
g52
sbag0
(g16
g2
Ntp1634
Rp1635
(dp1636
g20
I01
sg21
I9
sg22
I4
sg23
I23
sg24
g52
sbag0
(g16
g2
Ntp1637
Rp1638
(dp1639
g20
I00
sg21
I10
sg22
I1
sg23
I23
sg24
g0
(g25
g2
Ntp1640
Rp1641
(dp1642
g29
I93
sg30
g0
(g31
g2
Ntp1643
Rp1644
(dp1645
g35
I0
sg36
I0
sg37
g38
sbsbsbag0
(g16
g2
Ntp1646
Rp1647
(dp1648
g20
I00
sg21
I11
sg22
I1
sg23
I23
sg24
g1641
sbag0
(g16
g2
Ntp1649
Rp1650
(dp1651
g20
I00
sg21
I12
sg22
I1
sg23
I23
sg24
g1641
sbag0
(g16
g2
Ntp1652
Rp1653
(dp1654
g20
I00
sg21
I13
sg22
I1
sg23
I23
sg24
g1641
sbag0
(g16
g2
Ntp1655
Rp1656
(dp1657
g20
I00
sg21
I14
sg22
I1
sg23
I23
sg24
g1641
sbag0
(g16
g2
Ntp1658
Rp1659
(dp1660
g20
I01
sg21
I15
sg22
I2
sg23
I23
sg24
g52
sbag0
(g16
g2
Ntp1661
Rp1662
(dp1663
g20
I01
sg21
I16
sg22
I6
sg23
I23
sg24
g112
sbag0
(g16
g2
Ntp1664
Rp1665
(dp1666
g20
I01
sg21
I17
sg22
I6
sg23
I23
sg24
g121
sbaa(lp1667
g0
(g16
g2
Ntp1668
Rp1669
(dp1670
g20
I00
sg21
I0
sg22
I1
sg23
I24
sg24
g27
sbag0
(g16
g2
Ntp1671
Rp1672
(dp1673
g20
I00
sg21
I1
sg22
I1
sg23
I24
sg24
g43
sbag0
(g16
g2
Ntp1674
Rp1675
(dp1676
g20
I01
sg21
I2
sg22
I3
sg23
I24
sg24
g52
sbag0
(g16
g2
Ntp1677
Rp1678
(dp1679
g20
I00
sg21
I3
sg22
I1
sg23
I24
sg24
g0
(g25
g2
Ntp1680
Rp1681
(dp1682
g29
I96
sg30
g0
(g31
g2
Ntp1683
Rp1684
(dp1685
g35
I0
sg36
I0
sg37
g38
sbsbsbag0
(g16
g2
Ntp1686
Rp1687
(dp1688
g20
I00
sg21
I4
sg22
I1
sg23
I24
sg24
g1681
sbag0
(g16
g2
Ntp1689
Rp1690
(dp1691
g20
I00
sg21
I5
sg22
I1
sg23
I24
sg24
g1681
sbag0
(g16
g2
Ntp1692
Rp1693
(dp1694
g20
I00
sg21
I6
sg22
I1
sg23
I24
sg24
g1681
sbag0
(g16
g2
Ntp1695
Rp1696
(dp1697
g20
I00
sg21
I7
sg22
I1
sg23
I24
sg24
g1681
sbag0
(g16
g2
Ntp1698
Rp1699
(dp1700
g20
I01
sg21
I8
sg22
I5
sg23
I24
sg24
g52
sbag0
(g16
g2
Ntp1701
Rp1702
(dp1703
g20
I01
sg21
I9
sg22
I4
sg23
I24
sg24
g52
sbag0
(g16
g2
Ntp1704
Rp1705
(dp1706
g20
I00
sg21
I10
sg22
I1
sg23
I24
sg24
g0
(g25
g2
Ntp1707
Rp1708
(dp1709
g29
I97
sg30
g0
(g31
g2
Ntp1710
Rp1711
(dp1712
g35
I0
sg36
I0
sg37
g38
sbsbsbag0
(g16
g2
Ntp1713
Rp1714
(dp1715
g20
I00
sg21
I11
sg22
I1
sg23
I24
sg24
g1708
sbag0
(g16
g2
Ntp1716
Rp1717
(dp1718
g20
I00
sg21
I12
sg22
I1
sg23
I24
sg24
g1708
sbag0
(g16
g2
Ntp1719
Rp1720
(dp1721
g20
I00
sg21
I13
sg22
I1
sg23
I24
sg24
g1708
sbag0
(g16
g2
Ntp1722
Rp1723
(dp1724
g20
I00
sg21
I14
sg22
I1
sg23
I24
sg24
g1708
sbag0
(g16
g2
Ntp1725
Rp1726
(dp1727
g20
I01
sg21
I15
sg22
I2
sg23
I24
sg24
g52
sbag0
(g16
g2
Ntp1728
Rp1729
(dp1730
g20
I00
sg21
I16
sg22
I1
sg23
I24
sg24
g112
sbag0
(g16
g2
Ntp1731
Rp1732
(dp1733
g20
I00
sg21
I17
sg22
I1
sg23
I24
sg24
g121
sbaa(lp1734
g0
(g16
g2
Ntp1735
Rp1736
(dp1737
g20
I00
sg21
I0
sg22
I1
sg23
I25
sg24
g27
sbag0
(g16
g2
Ntp1738
Rp1739
(dp1740
g20
I00
sg21
I1
sg22
I1
sg23
I25
sg24
g43
sbag0
(g16
g2
Ntp1741
Rp1742
(dp1743
g20
I01
sg21
I2
sg22
I3
sg23
I25
sg24
g52
sbag0
(g16
g2
Ntp1744
Rp1745
(dp1746
g20
I00
sg21
I3
sg22
I1
sg23
I25
sg24
g0
(g25
g2
Ntp1747
Rp1748
(dp1749
g29
I100
sg30
g0
(g31
g2
Ntp1750
Rp1751
(dp1752
g35
I0
sg36
I0
sg37
g38
sbsbsbag0
(g16
g2
Ntp1753
Rp1754
(dp1755
g20
I00
sg21
I4
sg22
I1
sg23
I25
sg24
g1748
sbag0
(g16
g2
Ntp1756
Rp1757
(dp1758
g20
I00
sg21
I5
sg22
I1
sg23
I25
sg24
g1748
sbag0
(g16
g2
Ntp1759
Rp1760
(dp1761
g20
I00
sg21
I6
sg22
I1
sg23
I25
sg24
g1748
sbag0
(g16
g2
Ntp1762
Rp1763
(dp1764
g20
I00
sg21
I7
sg22
I1
sg23
I25
sg24
g1748
sbag0
(g16
g2
Ntp1765
Rp1766
(dp1767
g20
I01
sg21
I8
sg22
I5
sg23
I25
sg24
g52
sbag0
(g16
g2
Ntp1768
Rp1769
(dp1770
g20
I01
sg21
I9
sg22
I4
sg23
I25
sg24
g52
sbag0
(g16
g2
Ntp1771
Rp1772
(dp1773
g20
I00
sg21
I10
sg22
I1
sg23
I25
sg24
g0
(g25
g2
Ntp1774
Rp1775
(dp1776
g29
I101
sg30
g0
(g31
g2
Ntp1777
Rp1778
(dp1779
g35
I0
sg36
I0
sg37
g38
sbsbsbag0
(g16
g2
Ntp1780
Rp1781
(dp1782
g20
I00
sg21
I11
sg22
I1
sg23
I25
sg24
g1775
sbag0
(g16
g2
Ntp1783
Rp1784
(dp1785
g20
I00
sg21
I12
sg22
I1
sg23
I25
sg24
g1775
sbag0
(g16
g2
Ntp1786
Rp1787
(dp1788
g20
I00
sg21
I13
sg22
I1
sg23
I25
sg24
g1775
sbag0
(g16
g2
Ntp1789
Rp1790
(dp1791
g20
I00
sg21
I14
sg22
I1
sg23
I25
sg24
g1775
sbag0
(g16
g2
Ntp1792
Rp1793
(dp1794
g20
I01
sg21
I15
sg22
I2
sg23
I25
sg24
g52
sbag0
(g16
g2
Ntp1795
Rp1796
(dp1797
g20
I00
sg21
I16
sg22
I1
sg23
I25
sg24
g112
sbag0
(g16
g2
Ntp1798
Rp1799
(dp1800
g20
I00
sg21
I17
sg22
I1
sg23
I25
sg24
g121
sbaa(lp1801
g0
(g16
g2
Ntp1802
Rp1803
(dp1804
g20
I00
sg21
I0
sg22
I1
sg23
I26
sg24
g27
sbag0
(g16
g2
Ntp1805
Rp1806
(dp1807
g20
I00
sg21
I1
sg22
I1
sg23
I26
sg24
g43
sbag0
(g16
g2
Ntp1808
Rp1809
(dp1810
g20
I01
sg21
I2
sg22
I3
sg23
I26
sg24
g52
sbag0
(g16
g2
Ntp1811
Rp1812
(dp1813
g20
I00
sg21
I3
sg22
I1
sg23
I26
sg24
g0
(g25
g2
Ntp1814
Rp1815
(dp1816
g29
I104
sg30
g0
(g31
g2
Ntp1817
Rp1818
(dp1819
g35
I0
sg36
I0
sg37
g38
sbsbsbag0
(g16
g2
Ntp1820
Rp1821
(dp1822
g20
I00
sg21
I4
sg22
I1
sg23
I26
sg24
g1815
sbag0
(g16
g2
Ntp1823
Rp1824
(dp1825
g20
I00
sg21
I5
sg22
I1
sg23
I26
sg24
g1815
sbag0
(g16
g2
Ntp1826
Rp1827
(dp1828
g20
I00
sg21
I6
sg22
I1
sg23
I26
sg24
g1815
sbag0
(g16
g2
Ntp1829
Rp1830
(dp1831
g20
I00
sg21
I7
sg22
I1
sg23
I26
sg24
g1815
sbag0
(g16
g2
Ntp1832
Rp1833
(dp1834
g20
I01
sg21
I8
sg22
I5
sg23
I26
sg24
g52
sbag0
(g16
g2
Ntp1835
Rp1836
(dp1837
g20
I01
sg21
I9
sg22
I4
sg23
I26
sg24
g52
sbag0
(g16
g2
Ntp1838
Rp1839
(dp1840
g20
I00
sg21
I10
sg22
I1
sg23
I26
sg24
g0
(g25
g2
Ntp1841
Rp1842
(dp1843
g29
I105
sg30
g0
(g31
g2
Ntp1844
Rp1845
(dp1846
g35
I0
sg36
I0
sg37
g38
sbsbsbag0
(g16
g2
Ntp1847
Rp1848
(dp1849
g20
I00
sg21
I11
sg22
I1
sg23
I26
sg24
g1842
sbag0
(g16
g2
Ntp1850
Rp1851
(dp1852
g20
I00
sg21
I12
sg22
I1
sg23
I26
sg24
g1842
sbag0
(g16
g2
Ntp1853
Rp1854
(dp1855
g20
I00
sg21
I13
sg22
I1
sg23
I26
sg24
g1842
sbag0
(g16
g2
Ntp1856
Rp1857
(dp1858
g20
I00
sg21
I14
sg22
I1
sg23
I26
sg24
g1842
sbag0
(g16
g2
Ntp1859
Rp1860
(dp1861
g20
I01
sg21
I15
sg22
I2
sg23
I26
sg24
g52
sbag0
(g16
g2
Ntp1862
Rp1863
(dp1864
g20
I00
sg21
I16
sg22
I1
sg23
I26
sg24
g112
sbag0
(g16
g2
Ntp1865
Rp1866
(dp1867
g20
I00
sg21
I17
sg22
I1
sg23
I26
sg24
g121
sbaa(lp1868
g0
(g16
g2
Ntp1869
Rp1870
(dp1871
g20
I00
sg21
I0
sg22
I1
sg23
I27
sg24
g27
sbag0
(g16
g2
Ntp1872
Rp1873
(dp1874
g20
I00
sg21
I1
sg22
I1
sg23
I27
sg24
g43
sbag0
(g16
g2
Ntp1875
Rp1876
(dp1877
g20
I01
sg21
I2
sg22
I3
sg23
I27
sg24
g52
sbag0
(g16
g2
Ntp1878
Rp1879
(dp1880
g20
I00
sg21
I3
sg22
I1
sg23
I27
sg24
g0
(g25
g2
Ntp1881
Rp1882
(dp1883
g29
I108
sg30
g0
(g31
g2
Ntp1884
Rp1885
(dp1886
g35
I0
sg36
I0
sg37
g38
sbsbsbag0
(g16
g2
Ntp1887
Rp1888
(dp1889
g20
I00
sg21
I4
sg22
I1
sg23
I27
sg24
g1882
sbag0
(g16
g2
Ntp1890
Rp1891
(dp1892
g20
I00
sg21
I5
sg22
I1
sg23
I27
sg24
g1882
sbag0
(g16
g2
Ntp1893
Rp1894
(dp1895
g20
I00
sg21
I6
sg22
I1
sg23
I27
sg24
g1882
sbag0
(g16
g2
Ntp1896
Rp1897
(dp1898
g20
I00
sg21
I7
sg22
I1
sg23
I27
sg24
g1882
sbag0
(g16
g2
Ntp1899
Rp1900
(dp1901
g20
I01
sg21
I8
sg22
I5
sg23
I27
sg24
g52
sbag0
(g16
g2
Ntp1902
Rp1903
(dp1904
g20
I01
sg21
I9
sg22
I4
sg23
I27
sg24
g52
sbag0
(g16
g2
Ntp1905
Rp1906
(dp1907
g20
I00
sg21
I10
sg22
I1
sg23
I27
sg24
g0
(g25
g2
Ntp1908
Rp1909
(dp1910
g29
I109
sg30
g0
(g31
g2
Ntp1911
Rp1912
(dp1913
g35
I0
sg36
I0
sg37
g38
sbsbsbag0
(g16
g2
Ntp1914
Rp1915
(dp1916
g20
I00
sg21
I11
sg22
I1
sg23
I27
sg24
g1909
sbag0
(g16
g2
Ntp1917
Rp1918
(dp1919
g20
I00
sg21
I12
sg22
I1
sg23
I27
sg24
g1909
sbag0
(g16
g2
Ntp1920
Rp1921
(dp1922
g20
I00
sg21
I13
sg22
I1
sg23
I27
sg24
g1909
sbag0
(g16
g2
Ntp1923
Rp1924
(dp1925
g20
I00
sg21
I14
sg22
I1
sg23
I27
sg24
g1909
sbag0
(g16
g2
Ntp1926
Rp1927
(dp1928
g20
I01
sg21
I15
sg22
I2
sg23
I27
sg24
g52
sbag0
(g16
g2
Ntp1929
Rp1930
(dp1931
g20
I00
sg21
I16
sg22
I1
sg23
I27
sg24
g112
sbag0
(g16
g2
Ntp1932
Rp1933
(dp1934
g20
I00
sg21
I17
sg22
I1
sg23
I27
sg24
g121
sbaa(lp1935
g0
(g16
g2
Ntp1936
Rp1937
(dp1938
g20
I00
sg21
I0
sg22
I1
sg23
I28
sg24
g27
sbag0
(g16
g2
Ntp1939
Rp1940
(dp1941
g20
I00
sg21
I1
sg22
I1
sg23
I28
sg24
g43
sbag0
(g16
g2
Ntp1942
Rp1943
(dp1944
g20
I01
sg21
I2
sg22
I3
sg23
I28
sg24
g52
sbag0
(g16
g2
Ntp1945
Rp1946
(dp1947
g20
I00
sg21
I3
sg22
I1
sg23
I28
sg24
g0
(g25
g2
Ntp1948
Rp1949
(dp1950
g29
I112
sg30
g0
(g31
g2
Ntp1951
Rp1952
(dp1953
g35
I0
sg36
I0
sg37
g38
sbsbsbag0
(g16
g2
Ntp1954
Rp1955
(dp1956
g20
I00
sg21
I4
sg22
I1
sg23
I28
sg24
g1949
sbag0
(g16
g2
Ntp1957
Rp1958
(dp1959
g20
I00
sg21
I5
sg22
I1
sg23
I28
sg24
g1949
sbag0
(g16
g2
Ntp1960
Rp1961
(dp1962
g20
I01
sg21
I6
sg22
I1
sg23
I28
sg24
g1949
sbag0
(g16
g2
Ntp1963
Rp1964
(dp1965
g20
I01
sg21
I7
sg22
I1
sg23
I28
sg24
g1949
sbag0
(g16
g2
Ntp1966
Rp1967
(dp1968
g20
I01
sg21
I8
sg22
I5
sg23
I28
sg24
g52
sbag0
(g16
g2
Ntp1969
Rp1970
(dp1971
g20
I01
sg21
I9
sg22
I4
sg23
I28
sg24
g52
sbag0
(g16
g2
Ntp1972
Rp1973
(dp1974
g20
I00
sg21
I10
sg22
I1
sg23
I28
sg24
g0
(g25
g2
Ntp1975
Rp1976
(dp1977
g29
I113
sg30
g0
(g31
g2
Ntp1978
Rp1979
(dp1980
g35
I0
sg36
I0
sg37
g38
sbsbsbag0
(g16
g2
Ntp1981
Rp1982
(dp1983
g20
I00
sg21
I11
sg22
I1
sg23
I28
sg24
g1976
sbag0
(g16
g2
Ntp1984
Rp1985
(dp1986
g20
I00
sg21
I12
sg22
I1
sg23
I28
sg24
g1976
sbag0
(g16
g2
Ntp1987
Rp1988
(dp1989
g20
I00
sg21
I13
sg22
I1
sg23
I28
sg24
g1976
sbag0
(g16
g2
Ntp1990
Rp1991
(dp1992
g20
I00
sg21
I14
sg22
I1
sg23
I28
sg24
g1976
sbag0
(g16
g2
Ntp1993
Rp1994
(dp1995
g20
I01
sg21
I15
sg22
I2
sg23
I28
sg24
g52
sbag0
(g16
g2
Ntp1996
Rp1997
(dp1998
g20
I00
sg21
I16
sg22
I1
sg23
I28
sg24
g112
sbag0
(g16
g2
Ntp1999
Rp2000
(dp2001
g20
I01
sg21
I17
sg22
I1
sg23
I28
sg24
g121
sbaa(lp2002
g0
(g16
g2
Ntp2003
Rp2004
(dp2005
g20
I01
sg21
I0
sg22
I6
sg23
I29
sg24
g27
sbag0
(g16
g2
Ntp2006
Rp2007
(dp2008
g20
I01
sg21
I1
sg22
I6
sg23
I29
sg24
g43
sbag0
(g16
g2
Ntp2009
Rp2010
(dp2011
g20
I01
sg21
I2
sg22
I3
sg23
I29
sg24
g52
sbag0
(g16
g2
Ntp2012
Rp2013
(dp2014
g20
I00
sg21
I3
sg22
I1
sg23
I29
sg24
g0
(g25
g2
Ntp2015
Rp2016
(dp2017
g29
I116
sg30
g0
(g31
g2
Ntp2018
Rp2019
(dp2020
g35
I0
sg36
I0
sg37
g38
sbsbsbag0
(g16
g2
Ntp2021
Rp2022
(dp2023
g20
I00
sg21
I4
sg22
I1
sg23
I29
sg24
g2016
sbag0
(g16
g2
Ntp2024
Rp2025
(dp2026
g20
I00
sg21
I5
sg22
I1
sg23
I29
sg24
g2016
sbag0
(g16
g2
Ntp2027
Rp2028
(dp2029
g20
I00
sg21
I6
sg22
I1
sg23
I29
sg24
g2016
sbag0
(g16
g2
Ntp2030
Rp2031
(dp2032
g20
I00
sg21
I7
sg22
I1
sg23
I29
sg24
g2016
sbag0
(g16
g2
Ntp2033
Rp2034
(dp2035
g20
I01
sg21
I8
sg22
I5
sg23
I29
sg24
g52
sbag0
(g16
g2
Ntp2036
Rp2037
(dp2038
g20
I01
sg21
I9
sg22
I4
sg23
I29
sg24
g52
sbag0
(g16
g2
Ntp2039
Rp2040
(dp2041
g20
I00
sg21
I10
sg22
I1
sg23
I29
sg24
g0
(g25
g2
Ntp2042
Rp2043
(dp2044
g29
I117
sg30
g0
(g31
g2
Ntp2045
Rp2046
(dp2047
g35
I0
sg36
I0
sg37
g38
sbsbsbag0
(g16
g2
Ntp2048
Rp2049
(dp2050
g20
I00
sg21
I11
sg22
I1
sg23
I29
sg24
g2043
sbag0
(g16
g2
Ntp2051
Rp2052
(dp2053
g20
I00
sg21
I12
sg22
I1
sg23
I29
sg24
g2043
sbag0
(g16
g2
Ntp2054
Rp2055
(dp2056
g20
I00
sg21
I13
sg22
I1
sg23
I29
sg24
g2043
sbag0
(g16
g2
Ntp2057
Rp2058
(dp2059
g20
I00
sg21
I14
sg22
I1
sg23
I29
sg24
g2043
sbag0
(g16
g2
Ntp2060
Rp2061
(dp2062
g20
I01
sg21
I15
sg22
I2
sg23
I29
sg24
g52
sbag0
(g16
g2
Ntp2063
Rp2064
(dp2065
g20
I01
sg21
I16
sg22
I6
sg23
I29
sg24
g112
sbag0
(g16
g2
Ntp2066
Rp2067
(dp2068
g20
I01
sg21
I17
sg22
I6
sg23
I29
sg24
g121
sbaa(lp2069
g0
(g16
g2
Ntp2070
Rp2071
(dp2072
g20
I00
sg21
I0
sg22
I1
sg23
I30
sg24
g27
sbag0
(g16
g2
Ntp2073
Rp2074
(dp2075
g20
I00
sg21
I1
sg22
I1
sg23
I30
sg24
g43
sbag0
(g16
g2
Ntp2076
Rp2077
(dp2078
g20
I01
sg21
I2
sg22
I3
sg23
I30
sg24
g52
sbag0
(g16
g2
Ntp2079
Rp2080
(dp2081
g20
I00
sg21
I3
sg22
I1
sg23
I30
sg24
g0
(g25
g2
Ntp2082
Rp2083
(dp2084
g29
I120
sg30
g0
(g31
g2
Ntp2085
Rp2086
(dp2087
g35
I0
sg36
I0
sg37
g38
sbsbsbag0
(g16
g2
Ntp2088
Rp2089
(dp2090
g20
I00
sg21
I4
sg22
I1
sg23
I30
sg24
g2083
sbag0
(g16
g2
Ntp2091
Rp2092
(dp2093
g20
I00
sg21
I5
sg22
I1
sg23
I30
sg24
g2083
sbag0
(g16
g2
Ntp2094
Rp2095
(dp2096
g20
I00
sg21
I6
sg22
I1
sg23
I30
sg24
g2083
sbag0
(g16
g2
Ntp2097
Rp2098
(dp2099
g20
I00
sg21
I7
sg22
I1
sg23
I30
sg24
g2083
sbag0
(g16
g2
Ntp2100
Rp2101
(dp2102
g20
I01
sg21
I8
sg22
I5
sg23
I30
sg24
g52
sbag0
(g16
g2
Ntp2103
Rp2104
(dp2105
g20
I01
sg21
I9
sg22
I4
sg23
I30
sg24
g52
sbag0
(g16
g2
Ntp2106
Rp2107
(dp2108
g20
I00
sg21
I10
sg22
I1
sg23
I30
sg24
g0
(g25
g2
Ntp2109
Rp2110
(dp2111
g29
I121
sg30
g0
(g31
g2
Ntp2112
Rp2113
(dp2114
g35
I0
sg36
I0
sg37
g38
sbsbsbag0
(g16
g2
Ntp2115
Rp2116
(dp2117
g20
I00
sg21
I11
sg22
I1
sg23
I30
sg24
g2110
sbag0
(g16
g2
Ntp2118
Rp2119
(dp2120
g20
I00
sg21
I12
sg22
I1
sg23
I30
sg24
g2110
sbag0
(g16
g2
Ntp2121
Rp2122
(dp2123
g20
I00
sg21
I13
sg22
I1
sg23
I30
sg24
g2110
sbag0
(g16
g2
Ntp2124
Rp2125
(dp2126
g20
I00
sg21
I14
sg22
I1
sg23
I30
sg24
g2110
sbag0
(g16
g2
Ntp2127
Rp2128
(dp2129
g20
I01
sg21
I15
sg22
I2
sg23
I30
sg24
g52
sbag0
(g16
g2
Ntp2130
Rp2131
(dp2132
g20
I00
sg21
I16
sg22
I1
sg23
I30
sg24
g112
sbag0
(g16
g2
Ntp2133
Rp2134
(dp2135
g20
I00
sg21
I17
sg22
I1
sg23
I30
sg24
g121
sbaa(lp2136
g0
(g16
g2
Ntp2137
Rp2138
(dp2139
g20
I00
sg21
I0
sg22
I1
sg23
I31
sg24
g27
sbag0
(g16
g2
Ntp2140
Rp2141
(dp2142
g20
I00
sg21
I1
sg22
I1
sg23
I31
sg24
g43
sbag0
(g16
g2
Ntp2143
Rp2144
(dp2145
g20
I01
sg21
I2
sg22
I3
sg23
I31
sg24
g52
sbag0
(g16
g2
Ntp2146
Rp2147
(dp2148
g20
I00
sg21
I3
sg22
I1
sg23
I31
sg24
g0
(g25
g2
Ntp2149
Rp2150
(dp2151
g29
I124
sg30
g0
(g31
g2
Ntp2152
Rp2153
(dp2154
g35
I0
sg36
I0
sg37
g38
sbsbsbag0
(g16
g2
Ntp2155
Rp2156
(dp2157
g20
I00
sg21
I4
sg22
I1
sg23
I31
sg24
g2150
sbag0
(g16
g2
Ntp2158
Rp2159
(dp2160
g20
I00
sg21
I5
sg22
I1
sg23
I31
sg24
g2150
sbag0
(g16
g2
Ntp2161
Rp2162
(dp2163
g20
I00
sg21
I6
sg22
I1
sg23
I31
sg24
g2150
sbag0
(g16
g2
Ntp2164
Rp2165
(dp2166
g20
I00
sg21
I7
sg22
I1
sg23
I31
sg24
g2150
sbag0
(g16
g2
Ntp2167
Rp2168
(dp2169
g20
I01
sg21
I8
sg22
I5
sg23
I31
sg24
g52
sbag0
(g16
g2
Ntp2170
Rp2171
(dp2172
g20
I01
sg21
I9
sg22
I4
sg23
I31
sg24
g52
sbag0
(g16
g2
Ntp2173
Rp2174
(dp2175
g20
I00
sg21
I10
sg22
I1
sg23
I31
sg24
g0
(g25
g2
Ntp2176
Rp2177
(dp2178
g29
I125
sg30
g0
(g31
g2
Ntp2179
Rp2180
(dp2181
g35
I0
sg36
I0
sg37
g38
sbsbsbag0
(g16
g2
Ntp2182
Rp2183
(dp2184
g20
I00
sg21
I11
sg22
I1
sg23
I31
sg24
g2177
sbag0
(g16
g2
Ntp2185
Rp2186
(dp2187
g20
I00
sg21
I12
sg22
I1
sg23
I31
sg24
g2177
sbag0
(g16
g2
Ntp2188
Rp2189
(dp2190
g20
I00
sg21
I13
sg22
I1
sg23
I31
sg24
g2177
sbag0
(g16
g2
Ntp2191
Rp2192
(dp2193
g20
I00
sg21
I14
sg22
I1
sg23
I31
sg24
g2177
sbag0
(g16
g2
Ntp2194
Rp2195
(dp2196
g20
I01
sg21
I15
sg22
I2
sg23
I31
sg24
g52
sbag0
(g16
g2
Ntp2197
Rp2198
(dp2199
g20
I00
sg21
I16
sg22
I1
sg23
I31
sg24
g112
sbag0
(g16
g2
Ntp2200
Rp2201
(dp2202
g20
I00
sg21
I17
sg22
I1
sg23
I31
sg24
g121
sbaa(lp2203
g0
(g16
g2
Ntp2204
Rp2205
(dp2206
g20
I00
sg21
I0
sg22
I1
sg23
I32
sg24
g27
sbag0
(g16
g2
Ntp2207
Rp2208
(dp2209
g20
I00
sg21
I1
sg22
I1
sg23
I32
sg24
g43
sbag0
(g16
g2
Ntp2210
Rp2211
(dp2212
g20
I01
sg21
I2
sg22
I3
sg23
I32
sg24
g52
sbag0
(g16
g2
Ntp2213
Rp2214
(dp2215
g20
I00
sg21
I3
sg22
I1
sg23
I32
sg24
g0
(g25
g2
Ntp2216
Rp2217
(dp2218
g29
I128
sg30
g0
(g31
g2
Ntp2219
Rp2220
(dp2221
g35
I0
sg36
I0
sg37
g38
sbsbsbag0
(g16
g2
Ntp2222
Rp2223
(dp2224
g20
I00
sg21
I4
sg22
I1
sg23
I32
sg24
g2217
sbag0
(g16
g2
Ntp2225
Rp2226
(dp2227
g20
I00
sg21
I5
sg22
I1
sg23
I32
sg24
g2217
sbag0
(g16
g2
Ntp2228
Rp2229
(dp2230
g20
I00
sg21
I6
sg22
I1
sg23
I32
sg24
g2217
sbag0
(g16
g2
Ntp2231
Rp2232
(dp2233
g20
I00
sg21
I7
sg22
I1
sg23
I32
sg24
g2217
sbag0
(g16
g2
Ntp2234
Rp2235
(dp2236
g20
I01
sg21
I8
sg22
I5
sg23
I32
sg24
g52
sbag0
(g16
g2
Ntp2237
Rp2238
(dp2239
g20
I01
sg21
I9
sg22
I4
sg23
I32
sg24
g52
sbag0
(g16
g2
Ntp2240
Rp2241
(dp2242
g20
I00
sg21
I10
sg22
I1
sg23
I32
sg24
g0
(g25
g2
Ntp2243
Rp2244
(dp2245
g29
I129
sg30
g0
(g31
g2
Ntp2246
Rp2247
(dp2248
g35
I0
sg36
I0
sg37
g38
sbsbsbag0
(g16
g2
Ntp2249
Rp2250
(dp2251
g20
I00
sg21
I11
sg22
I1
sg23
I32
sg24
g2244
sbag0
(g16
g2
Ntp2252
Rp2253
(dp2254
g20
I00
sg21
I12
sg22
I1
sg23
I32
sg24
g2244
sbag0
(g16
g2
Ntp2255
Rp2256
(dp2257
g20
I00
sg21
I13
sg22
I1
sg23
I32
sg24
g2244
sbag0
(g16
g2
Ntp2258
Rp2259
(dp2260
g20
I00
sg21
I14
sg22
I1
sg23
I32
sg24
g2244
sbag0
(g16
g2
Ntp2261
Rp2262
(dp2263
g20
I01
sg21
I15
sg22
I2
sg23
I32
sg24
g52
sbag0
(g16
g2
Ntp2264
Rp2265
(dp2266
g20
I00
sg21
I16
sg22
I1
sg23
I32
sg24
g112
sbag0
(g16
g2
Ntp2267
Rp2268
(dp2269
g20
I00
sg21
I17
sg22
I1
sg23
I32
sg24
g121
sbaa(lp2270
g0
(g16
g2
Ntp2271
Rp2272
(dp2273
g20
I00
sg21
I0
sg22
I1
sg23
I33
sg24
g27
sbag0
(g16
g2
Ntp2274
Rp2275
(dp2276
g20
I00
sg21
I1
sg22
I1
sg23
I33
sg24
g43
sbag0
(g16
g2
Ntp2277
Rp2278
(dp2279
g20
I01
sg21
I2
sg22
I3
sg23
I33
sg24
g52
sbag0
(g16
g2
Ntp2280
Rp2281
(dp2282
g20
I00
sg21
I3
sg22
I1
sg23
I33
sg24
g0
(g25
g2
Ntp2283
Rp2284
(dp2285
g29
I132
sg30
g0
(g31
g2
Ntp2286
Rp2287
(dp2288
g35
I0
sg36
I0
sg37
g38
sbsbsbag0
(g16
g2
Ntp2289
Rp2290
(dp2291
g20
I00
sg21
I4
sg22
I1
sg23
I33
sg24
g2284
sbag0
(g16
g2
Ntp2292
Rp2293
(dp2294
g20
I00
sg21
I5
sg22
I1
sg23
I33
sg24
g2284
sbag0
(g16
g2
Ntp2295
Rp2296
(dp2297
g20
I00
sg21
I6
sg22
I1
sg23
I33
sg24
g2284
sbag0
(g16
g2
Ntp2298
Rp2299
(dp2300
g20
I00
sg21
I7
sg22
I1
sg23
I33
sg24
g2284
sbag0
(g16
g2
Ntp2301
Rp2302
(dp2303
g20
I01
sg21
I8
sg22
I5
sg23
I33
sg24
g52
sbag0
(g16
g2
Ntp2304
Rp2305
(dp2306
g20
I01
sg21
I9
sg22
I4
sg23
I33
sg24
g52
sbag0
(g16
g2
Ntp2307
Rp2308
(dp2309
g20
I00
sg21
I10
sg22
I1
sg23
I33
sg24
g0
(g25
g2
Ntp2310
Rp2311
(dp2312
g29
I133
sg30
g0
(g31
g2
Ntp2313
Rp2314
(dp2315
g35
I0
sg36
I0
sg37
g38
sbsbsbag0
(g16
g2
Ntp2316
Rp2317
(dp2318
g20
I00
sg21
I11
sg22
I1
sg23
I33
sg24
g2311
sbag0
(g16
g2
Ntp2319
Rp2320
(dp2321
g20
I00
sg21
I12
sg22
I1
sg23
I33
sg24
g2311
sbag0
(g16
g2
Ntp2322
Rp2323
(dp2324
g20
I00
sg21
I13
sg22
I1
sg23
I33
sg24
g2311
sbag0
(g16
g2
Ntp2325
Rp2326
(dp2327
g20
I00
sg21
I14
sg22
I1
sg23
I33
sg24
g2311
sbag0
(g16
g2
Ntp2328
Rp2329
(dp2330
g20
I01
sg21
I15
sg22
I2
sg23
I33
sg24
g52
sbag0
(g16
g2
Ntp2331
Rp2332
(dp2333
g20
I00
sg21
I16
sg22
I1
sg23
I33
sg24
g112
sbag0
(g16
g2
Ntp2334
Rp2335
(dp2336
g20
I00
sg21
I17
sg22
I1
sg23
I33
sg24
g121
sbaa(lp2337
g0
(g16
g2
Ntp2338
Rp2339
(dp2340
g20
I00
sg21
I0
sg22
I1
sg23
I34
sg24
g27
sbag0
(g16
g2
Ntp2341
Rp2342
(dp2343
g20
I00
sg21
I1
sg22
I1
sg23
I34
sg24
g43
sbag0
(g16
g2
Ntp2344
Rp2345
(dp2346
g20
I01
sg21
I2
sg22
I3
sg23
I34
sg24
g52
sbag0
(g16
g2
Ntp2347
Rp2348
(dp2349
g20
I00
sg21
I3
sg22
I1
sg23
I34
sg24
g0
(g25
g2
Ntp2350
Rp2351
(dp2352
g29
I136
sg30
g0
(g31
g2
Ntp2353
Rp2354
(dp2355
g35
I0
sg36
I0
sg37
g38
sbsbsbag0
(g16
g2
Ntp2356
Rp2357
(dp2358
g20
I00
sg21
I4
sg22
I1
sg23
I34
sg24
g2351
sbag0
(g16
g2
Ntp2359
Rp2360
(dp2361
g20
I00
sg21
I5
sg22
I1
sg23
I34
sg24
g2351
sbag0
(g16
g2
Ntp2362
Rp2363
(dp2364
g20
I00
sg21
I6
sg22
I1
sg23
I34
sg24
g2351
sbag0
(g16
g2
Ntp2365
Rp2366
(dp2367
g20
I00
sg21
I7
sg22
I1
sg23
I34
sg24
g2351
sbag0
(g16
g2
Ntp2368
Rp2369
(dp2370
g20
I01
sg21
I8
sg22
I5
sg23
I34
sg24
g52
sbag0
(g16
g2
Ntp2371
Rp2372
(dp2373
g20
I01
sg21
I9
sg22
I4
sg23
I34
sg24
g52
sbag0
(g16
g2
Ntp2374
Rp2375
(dp2376
g20
I00
sg21
I10
sg22
I1
sg23
I34
sg24
g0
(g25
g2
Ntp2377
Rp2378
(dp2379
g29
I137
sg30
g0
(g31
g2
Ntp2380
Rp2381
(dp2382
g35
I0
sg36
I0
sg37
g38
sbsbsbag0
(g16
g2
Ntp2383
Rp2384
(dp2385
g20
I00
sg21
I11
sg22
I1
sg23
I34
sg24
g2378
sbag0
(g16
g2
Ntp2386
Rp2387
(dp2388
g20
I00
sg21
I12
sg22
I1
sg23
I34
sg24
g2378
sbag0
(g16
g2
Ntp2389
Rp2390
(dp2391
g20
I00
sg21
I13
sg22
I1
sg23
I34
sg24
g2378
sbag0
(g16
g2
Ntp2392
Rp2393
(dp2394
g20
I00
sg21
I14
sg22
I1
sg23
I34
sg24
g2378
sbag0
(g16
g2
Ntp2395
Rp2396
(dp2397
g20
I01
sg21
I15
sg22
I2
sg23
I34
sg24
g52
sbag0
(g16
g2
Ntp2398
Rp2399
(dp2400
g20
I00
sg21
I16
sg22
I1
sg23
I34
sg24
g112
sbag0
(g16
g2
Ntp2401
Rp2402
(dp2403
g20
I00
sg21
I17
sg22
I1
sg23
I34
sg24
g121
sbaa(lp2404
g0
(g16
g2
Ntp2405
Rp2406
(dp2407
g20
I01
sg21
I0
sg22
I6
sg23
I35
sg24
g27
sbag0
(g16
g2
Ntp2408
Rp2409
(dp2410
g20
I01
sg21
I1
sg22
I6
sg23
I35
sg24
g43
sbag0
(g16
g2
Ntp2411
Rp2412
(dp2413
g20
I01
sg21
I2
sg22
I3
sg23
I35
sg24
g52
sbag0
(g16
g2
Ntp2414
Rp2415
(dp2416
g20
I00
sg21
I3
sg22
I1
sg23
I35
sg24
g0
(g25
g2
Ntp2417
Rp2418
(dp2419
g29
I140
sg30
g0
(g31
g2
Ntp2420
Rp2421
(dp2422
g35
I0
sg36
I0
sg37
g38
sbsbsbag0
(g16
g2
Ntp2423
Rp2424
(dp2425
g20
I00
sg21
I4
sg22
I1
sg23
I35
sg24
g2418
sbag0
(g16
g2
Ntp2426
Rp2427
(dp2428
g20
I00
sg21
I5
sg22
I1
sg23
I35
sg24
g2418
sbag0
(g16
g2
Ntp2429
Rp2430
(dp2431
g20
I00
sg21
I6
sg22
I1
sg23
I35
sg24
g2418
sbag0
(g16
g2
Ntp2432
Rp2433
(dp2434
g20
I00
sg21
I7
sg22
I1
sg23
I35
sg24
g2418
sbag0
(g16
g2
Ntp2435
Rp2436
(dp2437
g20
I01
sg21
I8
sg22
I5
sg23
I35
sg24
g52
sbag0
(g16
g2
Ntp2438
Rp2439
(dp2440
g20
I01
sg21
I9
sg22
I4
sg23
I35
sg24
g52
sbag0
(g16
g2
Ntp2441
Rp2442
(dp2443
g20
I00
sg21
I10
sg22
I1
sg23
I35
sg24
g0
(g25
g2
Ntp2444
Rp2445
(dp2446
g29
I141
sg30
g0
(g31
g2
Ntp2447
Rp2448
(dp2449
g35
I0
sg36
I0
sg37
g38
sbsbsbag0
(g16
g2
Ntp2450
Rp2451
(dp2452
g20
I00
sg21
I11
sg22
I1
sg23
I35
sg24
g2445
sbag0
(g16
g2
Ntp2453
Rp2454
(dp2455
g20
I00
sg21
I12
sg22
I1
sg23
I35
sg24
g2445
sbag0
(g16
g2
Ntp2456
Rp2457
(dp2458
g20
I00
sg21
I13
sg22
I1
sg23
I35
sg24
g2445
sbag0
(g16
g2
Ntp2459
Rp2460
(dp2461
g20
I00
sg21
I14
sg22
I1
sg23
I35
sg24
g2445
sbag0
(g16
g2
Ntp2462
Rp2463
(dp2464
g20
I01
sg21
I15
sg22
I2
sg23
I35
sg24
g52
sbag0
(g16
g2
Ntp2465
Rp2466
(dp2467
g20
I01
sg21
I16
sg22
I6
sg23
I35
sg24
g112
sbag0
(g16
g2
Ntp2468
Rp2469
(dp2470
g20
I01
sg21
I17
sg22
I6
sg23
I35
sg24
g121
sbaa(lp2471
g0
(g16
g2
Ntp2472
Rp2473
(dp2474
g20
I00
sg21
I0
sg22
I1
sg23
I36
sg24
g27
sbag0
(g16
g2
Ntp2475
Rp2476
(dp2477
g20
I00
sg21
I1
sg22
I1
sg23
I36
sg24
g43
sbag0
(g16
g2
Ntp2478
Rp2479
(dp2480
g20
I01
sg21
I2
sg22
I3
sg23
I36
sg24
g52
sbag0
(g16
g2
Ntp2481
Rp2482
(dp2483
g20
I00
sg21
I3
sg22
I1
sg23
I36
sg24
g0
(g25
g2
Ntp2484
Rp2485
(dp2486
g29
I144
sg30
g0
(g31
g2
Ntp2487
Rp2488
(dp2489
g35
I0
sg36
I0
sg37
g38
sbsbsbag0
(g16
g2
Ntp2490
Rp2491
(dp2492
g20
I00
sg21
I4
sg22
I1
sg23
I36
sg24
g2485
sbag0
(g16
g2
Ntp2493
Rp2494
(dp2495
g20
I00
sg21
I5
sg22
I1
sg23
I36
sg24
g2485
sbag0
(g16
g2
Ntp2496
Rp2497
(dp2498
g20
I00
sg21
I6
sg22
I1
sg23
I36
sg24
g2485
sbag0
(g16
g2
Ntp2499
Rp2500
(dp2501
g20
I00
sg21
I7
sg22
I1
sg23
I36
sg24
g2485
sbag0
(g16
g2
Ntp2502
Rp2503
(dp2504
g20
I01
sg21
I8
sg22
I5
sg23
I36
sg24
g52
sbag0
(g16
g2
Ntp2505
Rp2506
(dp2507
g20
I01
sg21
I9
sg22
I4
sg23
I36
sg24
g52
sbag0
(g16
g2
Ntp2508
Rp2509
(dp2510
g20
I00
sg21
I10
sg22
I1
sg23
I36
sg24
g0
(g25
g2
Ntp2511
Rp2512
(dp2513
g29
I145
sg30
g0
(g31
g2
Ntp2514
Rp2515
(dp2516
g35
I0
sg36
I0
sg37
g38
sbsbsbag0
(g16
g2
Ntp2517
Rp2518
(dp2519
g20
I00
sg21
I11
sg22
I1
sg23
I36
sg24
g2512
sbag0
(g16
g2
Ntp2520
Rp2521
(dp2522
g20
I00
sg21
I12
sg22
I1
sg23
I36
sg24
g2512
sbag0
(g16
g2
Ntp2523
Rp2524
(dp2525
g20
I00
sg21
I13
sg22
I1
sg23
I36
sg24
g2512
sbag0
(g16
g2
Ntp2526
Rp2527
(dp2528
g20
I00
sg21
I14
sg22
I1
sg23
I36
sg24
g2512
sbag0
(g16
g2
Ntp2529
Rp2530
(dp2531
g20
I01
sg21
I15
sg22
I2
sg23
I36
sg24
g52
sbag0
(g16
g2
Ntp2532
Rp2533
(dp2534
g20
I00
sg21
I16
sg22
I1
sg23
I36
sg24
g112
sbag0
(g16
g2
Ntp2535
Rp2536
(dp2537
g20
I00
sg21
I17
sg22
I1
sg23
I36
sg24
g121
sbaa(lp2538
g0
(g16
g2
Ntp2539
Rp2540
(dp2541
g20
I00
sg21
I0
sg22
I1
sg23
I37
sg24
g27
sbag0
(g16
g2
Ntp2542
Rp2543
(dp2544
g20
I00
sg21
I1
sg22
I1
sg23
I37
sg24
g43
sbag0
(g16
g2
Ntp2545
Rp2546
(dp2547
g20
I01
sg21
I2
sg22
I3
sg23
I37
sg24
g52
sbag0
(g16
g2
Ntp2548
Rp2549
(dp2550
g20
I00
sg21
I3
sg22
I1
sg23
I37
sg24
g0
(g25
g2
Ntp2551
Rp2552
(dp2553
g29
I148
sg30
g0
(g31
g2
Ntp2554
Rp2555
(dp2556
g35
I0
sg36
I0
sg37
g38
sbsbsbag0
(g16
g2
Ntp2557
Rp2558
(dp2559
g20
I00
sg21
I4
sg22
I1
sg23
I37
sg24
g2552
sbag0
(g16
g2
Ntp2560
Rp2561
(dp2562
g20
I00
sg21
I5
sg22
I1
sg23
I37
sg24
g2552
sbag0
(g16
g2
Ntp2563
Rp2564
(dp2565
g20
I00
sg21
I6
sg22
I1
sg23
I37
sg24
g2552
sbag0
(g16
g2
Ntp2566
Rp2567
(dp2568
g20
I00
sg21
I7
sg22
I1
sg23
I37
sg24
g2552
sbag0
(g16
g2
Ntp2569
Rp2570
(dp2571
g20
I01
sg21
I8
sg22
I5
sg23
I37
sg24
g52
sbag0
(g16
g2
Ntp2572
Rp2573
(dp2574
g20
I01
sg21
I9
sg22
I4
sg23
I37
sg24
g52
sbag0
(g16
g2
Ntp2575
Rp2576
(dp2577
g20
I00
sg21
I10
sg22
I1
sg23
I37
sg24
g0
(g25
g2
Ntp2578
Rp2579
(dp2580
g29
I149
sg30
g0
(g31
g2
Ntp2581
Rp2582
(dp2583
g35
I0
sg36
I0
sg37
g38
sbsbsbag0
(g16
g2
Ntp2584
Rp2585
(dp2586
g20
I00
sg21
I11
sg22
I1
sg23
I37
sg24
g2579
sbag0
(g16
g2
Ntp2587
Rp2588
(dp2589
g20
I00
sg21
I12
sg22
I1
sg23
I37
sg24
g2579
sbag0
(g16
g2
Ntp2590
Rp2591
(dp2592
g20
I00
sg21
I13
sg22
I1
sg23
I37
sg24
g2579
sbag0
(g16
g2
Ntp2593
Rp2594
(dp2595
g20
I00
sg21
I14
sg22
I1
sg23
I37
sg24
g2579
sbag0
(g16
g2
Ntp2596
Rp2597
(dp2598
g20
I01
sg21
I15
sg22
I2
sg23
I37
sg24
g52
sbag0
(g16
g2
Ntp2599
Rp2600
(dp2601
g20
I00
sg21
I16
sg22
I1
sg23
I37
sg24
g112
sbag0
(g16
g2
Ntp2602
Rp2603
(dp2604
g20
I00
sg21
I17
sg22
I1
sg23
I37
sg24
g121
sbaa(lp2605
g0
(g16
g2
Ntp2606
Rp2607
(dp2608
g20
I00
sg21
I0
sg22
I1
sg23
I38
sg24
g27
sbag0
(g16
g2
Ntp2609
Rp2610
(dp2611
g20
I00
sg21
I1
sg22
I1
sg23
I38
sg24
g43
sbag0
(g16
g2
Ntp2612
Rp2613
(dp2614
g20
I01
sg21
I2
sg22
I3
sg23
I38
sg24
g52
sbag0
(g16
g2
Ntp2615
Rp2616
(dp2617
g20
I00
sg21
I3
sg22
I1
sg23
I38
sg24
g0
(g25
g2
Ntp2618
Rp2619
(dp2620
g29
I152
sg30
g0
(g31
g2
Ntp2621
Rp2622
(dp2623
g35
I0
sg36
I0
sg37
g38
sbsbsbag0
(g16
g2
Ntp2624
Rp2625
(dp2626
g20
I00
sg21
I4
sg22
I1
sg23
I38
sg24
g2619
sbag0
(g16
g2
Ntp2627
Rp2628
(dp2629
g20
I00
sg21
I5
sg22
I1
sg23
I38
sg24
g2619
sbag0
(g16
g2
Ntp2630
Rp2631
(dp2632
g20
I00
sg21
I6
sg22
I1
sg23
I38
sg24
g2619
sbag0
(g16
g2
Ntp2633
Rp2634
(dp2635
g20
I00
sg21
I7
sg22
I1
sg23
I38
sg24
g2619
sbag0
(g16
g2
Ntp2636
Rp2637
(dp2638
g20
I01
sg21
I8
sg22
I5
sg23
I38
sg24
g52
sbag0
(g16
g2
Ntp2639
Rp2640
(dp2641
g20
I01
sg21
I9
sg22
I4
sg23
I38
sg24
g52
sbag0
(g16
g2
Ntp2642
Rp2643
(dp2644
g20
I00
sg21
I10
sg22
I1
sg23
I38
sg24
g0
(g25
g2
Ntp2645
Rp2646
(dp2647
g29
I153
sg30
g0
(g31
g2
Ntp2648
Rp2649
(dp2650
g35
I0
sg36
I0
sg37
g38
sbsbsbag0
(g16
g2
Ntp2651
Rp2652
(dp2653
g20
I00
sg21
I11
sg22
I1
sg23
I38
sg24
g2646
sbag0
(g16
g2
Ntp2654
Rp2655
(dp2656
g20
I00
sg21
I12
sg22
I1
sg23
I38
sg24
g2646
sbag0
(g16
g2
Ntp2657
Rp2658
(dp2659
g20
I00
sg21
I13
sg22
I1
sg23
I38
sg24
g2646
sbag0
(g16
g2
Ntp2660
Rp2661
(dp2662
g20
I00
sg21
I14
sg22
I1
sg23
I38
sg24
g2646
sbag0
(g16
g2
Ntp2663
Rp2664
(dp2665
g20
I01
sg21
I15
sg22
I2
sg23
I38
sg24
g52
sbag0
(g16
g2
Ntp2666
Rp2667
(dp2668
g20
I00
sg21
I16
sg22
I1
sg23
I38
sg24
g112
sbag0
(g16
g2
Ntp2669
Rp2670
(dp2671
g20
I00
sg21
I17
sg22
I1
sg23
I38
sg24
g121
sbaa(lp2672
g0
(g16
g2
Ntp2673
Rp2674
(dp2675
g20
I00
sg21
I0
sg22
I1
sg23
I39
sg24
g27
sbag0
(g16
g2
Ntp2676
Rp2677
(dp2678
g20
I00
sg21
I1
sg22
I1
sg23
I39
sg24
g43
sbag0
(g16
g2
Ntp2679
Rp2680
(dp2681
g20
I01
sg21
I2
sg22
I3
sg23
I39
sg24
g52
sbag0
(g16
g2
Ntp2682
Rp2683
(dp2684
g20
I00
sg21
I3
sg22
I1
sg23
I39
sg24
g0
(g25
g2
Ntp2685
Rp2686
(dp2687
g29
I156
sg30
g0
(g31
g2
Ntp2688
Rp2689
(dp2690
g35
I0
sg36
I0
sg37
g38
sbsbsbag0
(g16
g2
Ntp2691
Rp2692
(dp2693
g20
I00
sg21
I4
sg22
I1
sg23
I39
sg24
g2686
sbag0
(g16
g2
Ntp2694
Rp2695
(dp2696
g20
I00
sg21
I5
sg22
I1
sg23
I39
sg24
g2686
sbag0
(g16
g2
Ntp2697
Rp2698
(dp2699
g20
I00
sg21
I6
sg22
I1
sg23
I39
sg24
g2686
sbag0
(g16
g2
Ntp2700
Rp2701
(dp2702
g20
I00
sg21
I7
sg22
I1
sg23
I39
sg24
g2686
sbag0
(g16
g2
Ntp2703
Rp2704
(dp2705
g20
I01
sg21
I8
sg22
I5
sg23
I39
sg24
g52
sbag0
(g16
g2
Ntp2706
Rp2707
(dp2708
g20
I01
sg21
I9
sg22
I4
sg23
I39
sg24
g52
sbag0
(g16
g2
Ntp2709
Rp2710
(dp2711
g20
I00
sg21
I10
sg22
I1
sg23
I39
sg24
g0
(g25
g2
Ntp2712
Rp2713
(dp2714
g29
I157
sg30
g0
(g31
g2
Ntp2715
Rp2716
(dp2717
g35
I0
sg36
I0
sg37
g38
sbsbsbag0
(g16
g2
Ntp2718
Rp2719
(dp2720
g20
I00
sg21
I11
sg22
I1
sg23
I39
sg24
g2713
sbag0
(g16
g2
Ntp2721
Rp2722
(dp2723
g20
I00
sg21
I12
sg22
I1
sg23
I39
sg24
g2713
sbag0
(g16
g2
Ntp2724
Rp2725
(dp2726
g20
I00
sg21
I13
sg22
I1
sg23
I39
sg24
g2713
sbag0
(g16
g2
Ntp2727
Rp2728
(dp2729
g20
I00
sg21
I14
sg22
I1
sg23
I39
sg24
g2713
sbag0
(g16
g2
Ntp2730
Rp2731
(dp2732
g20
I01
sg21
I15
sg22
I2
sg23
I39
sg24
g52
sbag0
(g16
g2
Ntp2733
Rp2734
(dp2735
g20
I00
sg21
I16
sg22
I1
sg23
I39
sg24
g112
sbag0
(g16
g2
Ntp2736
Rp2737
(dp2738
g20
I00
sg21
I17
sg22
I1
sg23
I39
sg24
g121
sbaa(lp2739
g0
(g16
g2
Ntp2740
Rp2741
(dp2742
g20
I00
sg21
I0
sg22
I1
sg23
I40
sg24
g27
sbag0
(g16
g2
Ntp2743
Rp2744
(dp2745
g20
I00
sg21
I1
sg22
I1
sg23
I40
sg24
g43
sbag0
(g16
g2
Ntp2746
Rp2747
(dp2748
g20
I01
sg21
I2
sg22
I3
sg23
I40
sg24
g52
sbag0
(g16
g2
Ntp2749
Rp2750
(dp2751
g20
I00
sg21
I3
sg22
I1
sg23
I40
sg24
g0
(g25
g2
Ntp2752
Rp2753
(dp2754
g29
I160
sg30
g0
(g31
g2
Ntp2755
Rp2756
(dp2757
g35
I0
sg36
I0
sg37
g38
sbsbsbag0
(g16
g2
Ntp2758
Rp2759
(dp2760
g20
I00
sg21
I4
sg22
I1
sg23
I40
sg24
g2753
sbag0
(g16
g2
Ntp2761
Rp2762
(dp2763
g20
I00
sg21
I5
sg22
I1
sg23
I40
sg24
g2753
sbag0
(g16
g2
Ntp2764
Rp2765
(dp2766
g20
I00
sg21
I6
sg22
I1
sg23
I40
sg24
g2753
sbag0
(g16
g2
Ntp2767
Rp2768
(dp2769
g20
I00
sg21
I7
sg22
I1
sg23
I40
sg24
g2753
sbag0
(g16
g2
Ntp2770
Rp2771
(dp2772
g20
I01
sg21
I8
sg22
I5
sg23
I40
sg24
g52
sbag0
(g16
g2
Ntp2773
Rp2774
(dp2775
g20
I01
sg21
I9
sg22
I4
sg23
I40
sg24
g52
sbag0
(g16
g2
Ntp2776
Rp2777
(dp2778
g20
I00
sg21
I10
sg22
I1
sg23
I40
sg24
g0
(g25
g2
Ntp2779
Rp2780
(dp2781
g29
I161
sg30
g0
(g31
g2
Ntp2782
Rp2783
(dp2784
g35
I0
sg36
I0
sg37
g38
sbsbsbag0
(g16
g2
Ntp2785
Rp2786
(dp2787
g20
I00
sg21
I11
sg22
I1
sg23
I40
sg24
g2780
sbag0
(g16
g2
Ntp2788
Rp2789
(dp2790
g20
I00
sg21
I12
sg22
I1
sg23
I40
sg24
g2780
sbag0
(g16
g2
Ntp2791
Rp2792
(dp2793
g20
I00
sg21
I13
sg22
I1
sg23
I40
sg24
g2780
sbag0
(g16
g2
Ntp2794
Rp2795
(dp2796
g20
I00
sg21
I14
sg22
I1
sg23
I40
sg24
g2780
sbag0
(g16
g2
Ntp2797
Rp2798
(dp2799
g20
I01
sg21
I15
sg22
I2
sg23
I40
sg24
g52
sbag0
(g16
g2
Ntp2800
Rp2801
(dp2802
g20
I00
sg21
I16
sg22
I1
sg23
I40
sg24
g112
sbag0
(g16
g2
Ntp2803
Rp2804
(dp2805
g20
I00
sg21
I17
sg22
I1
sg23
I40
sg24
g121
sbaa(lp2806
g0
(g16
g2
Ntp2807
Rp2808
(dp2809
g20
I01
sg21
I0
sg22
I6
sg23
I41
sg24
g27
sbag0
(g16
g2
Ntp2810
Rp2811
(dp2812
g20
I01
sg21
I1
sg22
I6
sg23
I41
sg24
g43
sbag0
(g16
g2
Ntp2813
Rp2814
(dp2815
g20
I01
sg21
I2
sg22
I3
sg23
I41
sg24
g52
sbag0
(g16
g2
Ntp2816
Rp2817
(dp2818
g20
I00
sg21
I3
sg22
I1
sg23
I41
sg24
g0
(g25
g2
Ntp2819
Rp2820
(dp2821
g29
I164
sg30
g0
(g31
g2
Ntp2822
Rp2823
(dp2824
g35
I0
sg36
I0
sg37
g38
sbsbsbag0
(g16
g2
Ntp2825
Rp2826
(dp2827
g20
I00
sg21
I4
sg22
I1
sg23
I41
sg24
g2820
sbag0
(g16
g2
Ntp2828
Rp2829
(dp2830
g20
I00
sg21
I5
sg22
I1
sg23
I41
sg24
g2820
sbag0
(g16
g2
Ntp2831
Rp2832
(dp2833
g20
I00
sg21
I6
sg22
I1
sg23
I41
sg24
g2820
sbag0
(g16
g2
Ntp2834
Rp2835
(dp2836
g20
I00
sg21
I7
sg22
I1
sg23
I41
sg24
g2820
sbag0
(g16
g2
Ntp2837
Rp2838
(dp2839
g20
I01
sg21
I8
sg22
I5
sg23
I41
sg24
g52
sbag0
(g16
g2
Ntp2840
Rp2841
(dp2842
g20
I01
sg21
I9
sg22
I4
sg23
I41
sg24
g52
sbag0
(g16
g2
Ntp2843
Rp2844
(dp2845
g20
I00
sg21
I10
sg22
I1
sg23
I41
sg24
g0
(g25
g2
Ntp2846
Rp2847
(dp2848
g29
I165
sg30
g0
(g31
g2
Ntp2849
Rp2850
(dp2851
g35
I0
sg36
I0
sg37
g38
sbsbsbag0
(g16
g2
Ntp2852
Rp2853
(dp2854
g20
I00
sg21
I11
sg22
I1
sg23
I41
sg24
g2847
sbag0
(g16
g2
Ntp2855
Rp2856
(dp2857
g20
I00
sg21
I12
sg22
I1
sg23
I41
sg24
g2847
sbag0
(g16
g2
Ntp2858
Rp2859
(dp2860
g20
I00
sg21
I13
sg22
I1
sg23
I41
sg24
g2847
sbag0
(g16
g2
Ntp2861
Rp2862
(dp2863
g20
I00
sg21
I14
sg22
I1
sg23
I41
sg24
g2847
sbag0
(g16
g2
Ntp2864
Rp2865
(dp2866
g20
I01
sg21
I15
sg22
I2
sg23
I41
sg24
g52
sbag0
(g16
g2
Ntp2867
Rp2868
(dp2869
g20
I01
sg21
I16
sg22
I6
sg23
I41
sg24
g112
sbag0
(g16
g2
Ntp2870
Rp2871
(dp2872
g20
I01
sg21
I17
sg22
I6
sg23
I41
sg24
g121
sbaa(lp2873
g0
(g16
g2
Ntp2874
Rp2875
(dp2876
g20
I00
sg21
I0
sg22
I1
sg23
I42
sg24
g27
sbag0
(g16
g2
Ntp2877
Rp2878
(dp2879
g20
I00
sg21
I1
sg22
I1
sg23
I42
sg24
g43
sbag0
(g16
g2
Ntp2880
Rp2881
(dp2882
g20
I01
sg21
I2
sg22
I3
sg23
I42
sg24
g52
sbag0
(g16
g2
Ntp2883
Rp2884
(dp2885
g20
I00
sg21
I3
sg22
I1
sg23
I42
sg24
g0
(g25
g2
Ntp2886
Rp2887
(dp2888
g29
I168
sg30
g0
(g31
g2
Ntp2889
Rp2890
(dp2891
g35
I0
sg36
I0
sg37
g38
sbsbsbag0
(g16
g2
Ntp2892
Rp2893
(dp2894
g20
I00
sg21
I4
sg22
I1
sg23
I42
sg24
g2887
sbag0
(g16
g2
Ntp2895
Rp2896
(dp2897
g20
I00
sg21
I5
sg22
I1
sg23
I42
sg24
g2887
sbag0
(g16
g2
Ntp2898
Rp2899
(dp2900
g20
I00
sg21
I6
sg22
I1
sg23
I42
sg24
g2887
sbag0
(g16
g2
Ntp2901
Rp2902
(dp2903
g20
I00
sg21
I7
sg22
I1
sg23
I42
sg24
g2887
sbag0
(g16
g2
Ntp2904
Rp2905
(dp2906
g20
I01
sg21
I8
sg22
I5
sg23
I42
sg24
g52
sbag0
(g16
g2
Ntp2907
Rp2908
(dp2909
g20
I01
sg21
I9
sg22
I4
sg23
I42
sg24
g52
sbag0
(g16
g2
Ntp2910
Rp2911
(dp2912
g20
I00
sg21
I10
sg22
I1
sg23
I42
sg24
g0
(g25
g2
Ntp2913
Rp2914
(dp2915
g29
I169
sg30
g0
(g31
g2
Ntp2916
Rp2917
(dp2918
g35
I0
sg36
I0
sg37
g38
sbsbsbag0
(g16
g2
Ntp2919
Rp2920
(dp2921
g20
I00
sg21
I11
sg22
I1
sg23
I42
sg24
g2914
sbag0
(g16
g2
Ntp2922
Rp2923
(dp2924
g20
I00
sg21
I12
sg22
I1
sg23
I42
sg24
g2914
sbag0
(g16
g2
Ntp2925
Rp2926
(dp2927
g20
I00
sg21
I13
sg22
I1
sg23
I42
sg24
g2914
sbag0
(g16
g2
Ntp2928
Rp2929
(dp2930
g20
I00
sg21
I14
sg22
I1
sg23
I42
sg24
g2914
sbag0
(g16
g2
Ntp2931
Rp2932
(dp2933
g20
I01
sg21
I15
sg22
I2
sg23
I42
sg24
g52
sbag0
(g16
g2
Ntp2934
Rp2935
(dp2936
g20
I00
sg21
I16
sg22
I1
sg23
I42
sg24
g112
sbag0
(g16
g2
Ntp2937
Rp2938
(dp2939
g20
I00
sg21
I17
sg22
I1
sg23
I42
sg24
g121
sbaa(lp2940
g0
(g16
g2
Ntp2941
Rp2942
(dp2943
g20
I00
sg21
I0
sg22
I1
sg23
I43
sg24
g27
sbag0
(g16
g2
Ntp2944
Rp2945
(dp2946
g20
I00
sg21
I1
sg22
I1
sg23
I43
sg24
g43
sbag0
(g16
g2
Ntp2947
Rp2948
(dp2949
g20
I01
sg21
I2
sg22
I3
sg23
I43
sg24
g52
sbag0
(g16
g2
Ntp2950
Rp2951
(dp2952
g20
I00
sg21
I3
sg22
I1
sg23
I43
sg24
g0
(g25
g2
Ntp2953
Rp2954
(dp2955
g29
I172
sg30
g0
(g31
g2
Ntp2956
Rp2957
(dp2958
g35
I0
sg36
I0
sg37
g38
sbsbsbag0
(g16
g2
Ntp2959
Rp2960
(dp2961
g20
I00
sg21
I4
sg22
I1
sg23
I43
sg24
g2954
sbag0
(g16
g2
Ntp2962
Rp2963
(dp2964
g20
I00
sg21
I5
sg22
I1
sg23
I43
sg24
g2954
sbag0
(g16
g2
Ntp2965
Rp2966
(dp2967
g20
I00
sg21
I6
sg22
I1
sg23
I43
sg24
g2954
sbag0
(g16
g2
Ntp2968
Rp2969
(dp2970
g20
I00
sg21
I7
sg22
I1
sg23
I43
sg24
g2954
sbag0
(g16
g2
Ntp2971
Rp2972
(dp2973
g20
I01
sg21
I8
sg22
I5
sg23
I43
sg24
g52
sbag0
(g16
g2
Ntp2974
Rp2975
(dp2976
g20
I01
sg21
I9
sg22
I4
sg23
I43
sg24
g52
sbag0
(g16
g2
Ntp2977
Rp2978
(dp2979
g20
I00
sg21
I10
sg22
I1
sg23
I43
sg24
g0
(g25
g2
Ntp2980
Rp2981
(dp2982
g29
I173
sg30
g0
(g31
g2
Ntp2983
Rp2984
(dp2985
g35
I0
sg36
I0
sg37
g38
sbsbsbag0
(g16
g2
Ntp2986
Rp2987
(dp2988
g20
I00
sg21
I11
sg22
I1
sg23
I43
sg24
g2981
sbag0
(g16
g2
Ntp2989
Rp2990
(dp2991
g20
I00
sg21
I12
sg22
I1
sg23
I43
sg24
g2981
sbag0
(g16
g2
Ntp2992
Rp2993
(dp2994
g20
I00
sg21
I13
sg22
I1
sg23
I43
sg24
g2981
sbag0
(g16
g2
Ntp2995
Rp2996
(dp2997
g20
I00
sg21
I14
sg22
I1
sg23
I43
sg24
g2981
sbag0
(g16
g2
Ntp2998
Rp2999
(dp3000
g20
I01
sg21
I15
sg22
I2
sg23
I43
sg24
g52
sbag0
(g16
g2
Ntp3001
Rp3002
(dp3003
g20
I00
sg21
I16
sg22
I1
sg23
I43
sg24
g112
sbag0
(g16
g2
Ntp3004
Rp3005
(dp3006
g20
I00
sg21
I17
sg22
I1
sg23
I43
sg24
g121
sbaa(lp3007
g0
(g16
g2
Ntp3008
Rp3009
(dp3010
g20
I00
sg21
I0
sg22
I1
sg23
I44
sg24
g27
sbag0
(g16
g2
Ntp3011
Rp3012
(dp3013
g20
I00
sg21
I1
sg22
I1
sg23
I44
sg24
g43
sbag0
(g16
g2
Ntp3014
Rp3015
(dp3016
g20
I01
sg21
I2
sg22
I3
sg23
I44
sg24
g52
sbag0
(g16
g2
Ntp3017
Rp3018
(dp3019
g20
I00
sg21
I3
sg22
I1
sg23
I44
sg24
g0
(g25
g2
Ntp3020
Rp3021
(dp3022
g29
I176
sg30
g0
(g31
g2
Ntp3023
Rp3024
(dp3025
g35
I0
sg36
I0
sg37
g38
sbsbsbag0
(g16
g2
Ntp3026
Rp3027
(dp3028
g20
I00
sg21
I4
sg22
I1
sg23
I44
sg24
g3021
sbag0
(g16
g2
Ntp3029
Rp3030
(dp3031
g20
I00
sg21
I5
sg22
I1
sg23
I44
sg24
g3021
sbag0
(g16
g2
Ntp3032
Rp3033
(dp3034
g20
I00
sg21
I6
sg22
I1
sg23
I44
sg24
g3021
sbag0
(g16
g2
Ntp3035
Rp3036
(dp3037
g20
I00
sg21
I7
sg22
I1
sg23
I44
sg24
g3021
sbag0
(g16
g2
Ntp3038
Rp3039
(dp3040
g20
I01
sg21
I8
sg22
I5
sg23
I44
sg24
g52
sbag0
(g16
g2
Ntp3041
Rp3042
(dp3043
g20
I01
sg21
I9
sg22
I4
sg23
I44
sg24
g52
sbag0
(g16
g2
Ntp3044
Rp3045
(dp3046
g20
I00
sg21
I10
sg22
I1
sg23
I44
sg24
g0
(g25
g2
Ntp3047
Rp3048
(dp3049
g29
I177
sg30
g0
(g31
g2
Ntp3050
Rp3051
(dp3052
g35
I0
sg36
I0
sg37
g38
sbsbsbag0
(g16
g2
Ntp3053
Rp3054
(dp3055
g20
I00
sg21
I11
sg22
I1
sg23
I44
sg24
g3048
sbag0
(g16
g2
Ntp3056
Rp3057
(dp3058
g20
I00
sg21
I12
sg22
I1
sg23
I44
sg24
g3048
sbag0
(g16
g2
Ntp3059
Rp3060
(dp3061
g20
I00
sg21
I13
sg22
I1
sg23
I44
sg24
g3048
sbag0
(g16
g2
Ntp3062
Rp3063
(dp3064
g20
I00
sg21
I14
sg22
I1
sg23
I44
sg24
g3048
sbag0
(g16
g2
Ntp3065
Rp3066
(dp3067
g20
I01
sg21
I15
sg22
I2
sg23
I44
sg24
g52
sbag0
(g16
g2
Ntp3068
Rp3069
(dp3070
g20
I00
sg21
I16
sg22
I1
sg23
I44
sg24
g112
sbag0
(g16
g2
Ntp3071
Rp3072
(dp3073
g20
I00
sg21
I17
sg22
I1
sg23
I44
sg24
g121
sbaa(lp3074
g0
(g16
g2
Ntp3075
Rp3076
(dp3077
g20
I00
sg21
I0
sg22
I1
sg23
I45
sg24
g27
sbag0
(g16
g2
Ntp3078
Rp3079
(dp3080
g20
I00
sg21
I1
sg22
I1
sg23
I45
sg24
g43
sbag0
(g16
g2
Ntp3081
Rp3082
(dp3083
g20
I01
sg21
I2
sg22
I3
sg23
I45
sg24
g52
sbag0
(g16
g2
Ntp3084
Rp3085
(dp3086
g20
I00
sg21
I3
sg22
I1
sg23
I45
sg24
g0
(g25
g2
Ntp3087
Rp3088
(dp3089
g29
I180
sg30
g0
(g31
g2
Ntp3090
Rp3091
(dp3092
g35
I0
sg36
I0
sg37
g38
sbsbsbag0
(g16
g2
Ntp3093
Rp3094
(dp3095
g20
I00
sg21
I4
sg22
I1
sg23
I45
sg24
g3088
sbag0
(g16
g2
Ntp3096
Rp3097
(dp3098
g20
I00
sg21
I5
sg22
I1
sg23
I45
sg24
g3088
sbag0
(g16
g2
Ntp3099
Rp3100
(dp3101
g20
I00
sg21
I6
sg22
I1
sg23
I45
sg24
g3088
sbag0
(g16
g2
Ntp3102
Rp3103
(dp3104
g20
I00
sg21
I7
sg22
I1
sg23
I45
sg24
g3088
sbag0
(g16
g2
Ntp3105
Rp3106
(dp3107
g20
I01
sg21
I8
sg22
I5
sg23
I45
sg24
g52
sbag0
(g16
g2
Ntp3108
Rp3109
(dp3110
g20
I01
sg21
I9
sg22
I4
sg23
I45
sg24
g52
sbag0
(g16
g2
Ntp3111
Rp3112
(dp3113
g20
I00
sg21
I10
sg22
I1
sg23
I45
sg24
g0
(g25
g2
Ntp3114
Rp3115
(dp3116
g29
I181
sg30
g0
(g31
g2
Ntp3117
Rp3118
(dp3119
g35
I0
sg36
I0
sg37
g38
sbsbsbag0
(g16
g2
Ntp3120
Rp3121
(dp3122
g20
I00
sg21
I11
sg22
I1
sg23
I45
sg24
g3115
sbag0
(g16
g2
Ntp3123
Rp3124
(dp3125
g20
I00
sg21
I12
sg22
I1
sg23
I45
sg24
g3115
sbag0
(g16
g2
Ntp3126
Rp3127
(dp3128
g20
I00
sg21
I13
sg22
I1
sg23
I45
sg24
g3115
sbag0
(g16
g2
Ntp3129
Rp3130
(dp3131
g20
I00
sg21
I14
sg22
I1
sg23
I45
sg24
g3115
sbag0
(g16
g2
Ntp3132
Rp3133
(dp3134
g20
I01
sg21
I15
sg22
I2
sg23
I45
sg24
g52
sbag0
(g16
g2
Ntp3135
Rp3136
(dp3137
g20
I00
sg21
I16
sg22
I1
sg23
I45
sg24
g112
sbag0
(g16
g2
Ntp3138
Rp3139
(dp3140
g20
I00
sg21
I17
sg22
I1
sg23
I45
sg24
g121
sbaa(lp3141
g0
(g16
g2
Ntp3142
Rp3143
(dp3144
g20
I00
sg21
I0
sg22
I1
sg23
I46
sg24
g27
sbag0
(g16
g2
Ntp3145
Rp3146
(dp3147
g20
I00
sg21
I1
sg22
I1
sg23
I46
sg24
g43
sbag0
(g16
g2
Ntp3148
Rp3149
(dp3150
g20
I01
sg21
I2
sg22
I3
sg23
I46
sg24
g52
sbag0
(g16
g2
Ntp3151
Rp3152
(dp3153
g20
I00
sg21
I3
sg22
I1
sg23
I46
sg24
g0
(g25
g2
Ntp3154
Rp3155
(dp3156
g29
I184
sg30
g0
(g31
g2
Ntp3157
Rp3158
(dp3159
g35
I0
sg36
I0
sg37
g38
sbsbsbag0
(g16
g2
Ntp3160
Rp3161
(dp3162
g20
I00
sg21
I4
sg22
I1
sg23
I46
sg24
g3155
sbag0
(g16
g2
Ntp3163
Rp3164
(dp3165
g20
I00
sg21
I5
sg22
I1
sg23
I46
sg24
g3155
sbag0
(g16
g2
Ntp3166
Rp3167
(dp3168
g20
I00
sg21
I6
sg22
I1
sg23
I46
sg24
g3155
sbag0
(g16
g2
Ntp3169
Rp3170
(dp3171
g20
I00
sg21
I7
sg22
I1
sg23
I46
sg24
g3155
sbag0
(g16
g2
Ntp3172
Rp3173
(dp3174
g20
I01
sg21
I8
sg22
I5
sg23
I46
sg24
g52
sbag0
(g16
g2
Ntp3175
Rp3176
(dp3177
g20
I01
sg21
I9
sg22
I4
sg23
I46
sg24
g52
sbag0
(g16
g2
Ntp3178
Rp3179
(dp3180
g20
I00
sg21
I10
sg22
I1
sg23
I46
sg24
g0
(g25
g2
Ntp3181
Rp3182
(dp3183
g29
I185
sg30
g0
(g31
g2
Ntp3184
Rp3185
(dp3186
g35
I0
sg36
I0
sg37
g38
sbsbsbag0
(g16
g2
Ntp3187
Rp3188
(dp3189
g20
I00
sg21
I11
sg22
I1
sg23
I46
sg24
g3182
sbag0
(g16
g2
Ntp3190
Rp3191
(dp3192
g20
I00
sg21
I12
sg22
I1
sg23
I46
sg24
g3182
sbag0
(g16
g2
Ntp3193
Rp3194
(dp3195
g20
I00
sg21
I13
sg22
I1
sg23
I46
sg24
g3182
sbag0
(g16
g2
Ntp3196
Rp3197
(dp3198
g20
I00
sg21
I14
sg22
I1
sg23
I46
sg24
g3182
sbag0
(g16
g2
Ntp3199
Rp3200
(dp3201
g20
I01
sg21
I15
sg22
I2
sg23
I46
sg24
g52
sbag0
(g16
g2
Ntp3202
Rp3203
(dp3204
g20
I00
sg21
I16
sg22
I1
sg23
I46
sg24
g112
sbag0
(g16
g2
Ntp3205
Rp3206
(dp3207
g20
I00
sg21
I17
sg22
I1
sg23
I46
sg24
g121
sbaa(lp3208
g0
(g16
g2
Ntp3209
Rp3210
(dp3211
g20
I01
sg21
I0
sg22
I6
sg23
I47
sg24
g27
sbag0
(g16
g2
Ntp3212
Rp3213
(dp3214
g20
I01
sg21
I1
sg22
I6
sg23
I47
sg24
g43
sbag0
(g16
g2
Ntp3215
Rp3216
(dp3217
g20
I01
sg21
I2
sg22
I3
sg23
I47
sg24
g52
sbag0
(g16
g2
Ntp3218
Rp3219
(dp3220
g20
I00
sg21
I3
sg22
I1
sg23
I47
sg24
g0
(g25
g2
Ntp3221
Rp3222
(dp3223
g29
I188
sg30
g0
(g31
g2
Ntp3224
Rp3225
(dp3226
g35
I0
sg36
I0
sg37
g38
sbsbsbag0
(g16
g2
Ntp3227
Rp3228
(dp3229
g20
I00
sg21
I4
sg22
I1
sg23
I47
sg24
g3222
sbag0
(g16
g2
Ntp3230
Rp3231
(dp3232
g20
I00
sg21
I5
sg22
I1
sg23
I47
sg24
g3222
sbag0
(g16
g2
Ntp3233
Rp3234
(dp3235
g20
I00
sg21
I6
sg22
I1
sg23
I47
sg24
g3222
sbag0
(g16
g2
Ntp3236
Rp3237
(dp3238
g20
I00
sg21
I7
sg22
I1
sg23
I47
sg24
g3222
sbag0
(g16
g2
Ntp3239
Rp3240
(dp3241
g20
I01
sg21
I8
sg22
I5
sg23
I47
sg24
g52
sbag0
(g16
g2
Ntp3242
Rp3243
(dp3244
g20
I01
sg21
I9
sg22
I4
sg23
I47
sg24
g52
sbag0
(g16
g2
Ntp3245
Rp3246
(dp3247
g20
I00
sg21
I10
sg22
I1
sg23
I47
sg24
g0
(g25
g2
Ntp3248
Rp3249
(dp3250
g29
I189
sg30
g0
(g31
g2
Ntp3251
Rp3252
(dp3253
g35
I0
sg36
I0
sg37
g38
sbsbsbag0
(g16
g2
Ntp3254
Rp3255
(dp3256
g20
I00
sg21
I11
sg22
I1
sg23
I47
sg24
g3249
sbag0
(g16
g2
Ntp3257
Rp3258
(dp3259
g20
I00
sg21
I12
sg22
I1
sg23
I47
sg24
g3249
sbag0
(g16
g2
Ntp3260
Rp3261
(dp3262
g20
I00
sg21
I13
sg22
I1
sg23
I47
sg24
g3249
sbag0
(g16
g2
Ntp3263
Rp3264
(dp3265
g20
I00
sg21
I14
sg22
I1
sg23
I47
sg24
g3249
sbag0
(g16
g2
Ntp3266
Rp3267
(dp3268
g20
I01
sg21
I15
sg22
I2
sg23
I47
sg24
g52
sbag0
(g16
g2
Ntp3269
Rp3270
(dp3271
g20
I01
sg21
I16
sg22
I6
sg23
I47
sg24
g112
sbag0
(g16
g2
Ntp3272
Rp3273
(dp3274
g20
I01
sg21
I17
sg22
I6
sg23
I47
sg24
g121
sbaa(lp3275
g0
(g16
g2
Ntp3276
Rp3277
(dp3278
g20
I00
sg21
I0
sg22
I1
sg23
I48
sg24
g27
sbag0
(g16
g2
Ntp3279
Rp3280
(dp3281
g20
I00
sg21
I1
sg22
I1
sg23
I48
sg24
g43
sbag0
(g16
g2
Ntp3282
Rp3283
(dp3284
g20
I01
sg21
I2
sg22
I3
sg23
I48
sg24
g52
sbag0
(g16
g2
Ntp3285
Rp3286
(dp3287
g20
I00
sg21
I3
sg22
I1
sg23
I48
sg24
g0
(g25
g2
Ntp3288
Rp3289
(dp3290
g29
I192
sg30
g0
(g31
g2
Ntp3291
Rp3292
(dp3293
g35
I0
sg36
I0
sg37
g38
sbsbsbag0
(g16
g2
Ntp3294
Rp3295
(dp3296
g20
I00
sg21
I4
sg22
I1
sg23
I48
sg24
g3289
sbag0
(g16
g2
Ntp3297
Rp3298
(dp3299
g20
I00
sg21
I5
sg22
I1
sg23
I48
sg24
g3289
sbag0
(g16
g2
Ntp3300
Rp3301
(dp3302
g20
I00
sg21
I6
sg22
I1
sg23
I48
sg24
g3289
sbag0
(g16
g2
Ntp3303
Rp3304
(dp3305
g20
I00
sg21
I7
sg22
I1
sg23
I48
sg24
g3289
sbag0
(g16
g2
Ntp3306
Rp3307
(dp3308
g20
I01
sg21
I8
sg22
I5
sg23
I48
sg24
g52
sbag0
(g16
g2
Ntp3309
Rp3310
(dp3311
g20
I01
sg21
I9
sg22
I4
sg23
I48
sg24
g52
sbag0
(g16
g2
Ntp3312
Rp3313
(dp3314
g20
I00
sg21
I10
sg22
I1
sg23
I48
sg24
g0
(g25
g2
Ntp3315
Rp3316
(dp3317
g29
I193
sg30
g0
(g31
g2
Ntp3318
Rp3319
(dp3320
g35
I0
sg36
I0
sg37
g38
sbsbsbag0
(g16
g2
Ntp3321
Rp3322
(dp3323
g20
I00
sg21
I11
sg22
I1
sg23
I48
sg24
g3316
sbag0
(g16
g2
Ntp3324
Rp3325
(dp3326
g20
I00
sg21
I12
sg22
I1
sg23
I48
sg24
g3316
sbag0
(g16
g2
Ntp3327
Rp3328
(dp3329
g20
I00
sg21
I13
sg22
I1
sg23
I48
sg24
g3316
sbag0
(g16
g2
Ntp3330
Rp3331
(dp3332
g20
I00
sg21
I14
sg22
I1
sg23
I48
sg24
g3316
sbag0
(g16
g2
Ntp3333
Rp3334
(dp3335
g20
I01
sg21
I15
sg22
I2
sg23
I48
sg24
g52
sbag0
(g16
g2
Ntp3336
Rp3337
(dp3338
g20
I00
sg21
I16
sg22
I1
sg23
I48
sg24
g112
sbag0
(g16
g2
Ntp3339
Rp3340
(dp3341
g20
I00
sg21
I17
sg22
I1
sg23
I48
sg24
g121
sbaa(lp3342
g0
(g16
g2
Ntp3343
Rp3344
(dp3345
g20
I00
sg21
I0
sg22
I1
sg23
I49
sg24
g27
sbag0
(g16
g2
Ntp3346
Rp3347
(dp3348
g20
I00
sg21
I1
sg22
I1
sg23
I49
sg24
g43
sbag0
(g16
g2
Ntp3349
Rp3350
(dp3351
g20
I01
sg21
I2
sg22
I3
sg23
I49
sg24
g52
sbag0
(g16
g2
Ntp3352
Rp3353
(dp3354
g20
I00
sg21
I3
sg22
I1
sg23
I49
sg24
g0
(g25
g2
Ntp3355
Rp3356
(dp3357
g29
I196
sg30
g0
(g31
g2
Ntp3358
Rp3359
(dp3360
g35
I0
sg36
I0
sg37
g38
sbsbsbag0
(g16
g2
Ntp3361
Rp3362
(dp3363
g20
I00
sg21
I4
sg22
I1
sg23
I49
sg24
g3356
sbag0
(g16
g2
Ntp3364
Rp3365
(dp3366
g20
I00
sg21
I5
sg22
I1
sg23
I49
sg24
g3356
sbag0
(g16
g2
Ntp3367
Rp3368
(dp3369
g20
I00
sg21
I6
sg22
I1
sg23
I49
sg24
g3356
sbag0
(g16
g2
Ntp3370
Rp3371
(dp3372
g20
I00
sg21
I7
sg22
I1
sg23
I49
sg24
g3356
sbag0
(g16
g2
Ntp3373
Rp3374
(dp3375
g20
I01
sg21
I8
sg22
I5
sg23
I49
sg24
g52
sbag0
(g16
g2
Ntp3376
Rp3377
(dp3378
g20
I01
sg21
I9
sg22
I4
sg23
I49
sg24
g52
sbag0
(g16
g2
Ntp3379
Rp3380
(dp3381
g20
I00
sg21
I10
sg22
I1
sg23
I49
sg24
g0
(g25
g2
Ntp3382
Rp3383
(dp3384
g29
I197
sg30
g0
(g31
g2
Ntp3385
Rp3386
(dp3387
g35
I0
sg36
I0
sg37
g38
sbsbsbag0
(g16
g2
Ntp3388
Rp3389
(dp3390
g20
I00
sg21
I11
sg22
I1
sg23
I49
sg24
g3383
sbag0
(g16
g2
Ntp3391
Rp3392
(dp3393
g20
I00
sg21
I12
sg22
I1
sg23
I49
sg24
g3383
sbag0
(g16
g2
Ntp3394
Rp3395
(dp3396
g20
I00
sg21
I13
sg22
I1
sg23
I49
sg24
g3383
sbag0
(g16
g2
Ntp3397
Rp3398
(dp3399
g20
I00
sg21
I14
sg22
I1
sg23
I49
sg24
g3383
sbag0
(g16
g2
Ntp3400
Rp3401
(dp3402
g20
I01
sg21
I15
sg22
I2
sg23
I49
sg24
g52
sbag0
(g16
g2
Ntp3403
Rp3404
(dp3405
g20
I00
sg21
I16
sg22
I1
sg23
I49
sg24
g112
sbag0
(g16
g2
Ntp3406
Rp3407
(dp3408
g20
I00
sg21
I17
sg22
I1
sg23
I49
sg24
g121
sbaa(lp3409
g0
(g16
g2
Ntp3410
Rp3411
(dp3412
g20
I00
sg21
I0
sg22
I1
sg23
I50
sg24
g27
sbag0
(g16
g2
Ntp3413
Rp3414
(dp3415
g20
I00
sg21
I1
sg22
I1
sg23
I50
sg24
g43
sbag0
(g16
g2
Ntp3416
Rp3417
(dp3418
g20
I01
sg21
I2
sg22
I3
sg23
I50
sg24
g52
sbag0
(g16
g2
Ntp3419
Rp3420
(dp3421
g20
I00
sg21
I3
sg22
I1
sg23
I50
sg24
g0
(g25
g2
Ntp3422
Rp3423
(dp3424
g29
I200
sg30
g0
(g31
g2
Ntp3425
Rp3426
(dp3427
g35
I0
sg36
I0
sg37
g38
sbsbsbag0
(g16
g2
Ntp3428
Rp3429
(dp3430
g20
I00
sg21
I4
sg22
I1
sg23
I50
sg24
g3423
sbag0
(g16
g2
Ntp3431
Rp3432
(dp3433
g20
I00
sg21
I5
sg22
I1
sg23
I50
sg24
g3423
sbag0
(g16
g2
Ntp3434
Rp3435
(dp3436
g20
I00
sg21
I6
sg22
I1
sg23
I50
sg24
g3423
sbag0
(g16
g2
Ntp3437
Rp3438
(dp3439
g20
I00
sg21
I7
sg22
I1
sg23
I50
sg24
g3423
sbag0
(g16
g2
Ntp3440
Rp3441
(dp3442
g20
I01
sg21
I8
sg22
I5
sg23
I50
sg24
g52
sbag0
(g16
g2
Ntp3443
Rp3444
(dp3445
g20
I01
sg21
I9
sg22
I4
sg23
I50
sg24
g52
sbag0
(g16
g2
Ntp3446
Rp3447
(dp3448
g20
I00
sg21
I10
sg22
I1
sg23
I50
sg24
g0
(g25
g2
Ntp3449
Rp3450
(dp3451
g29
I201
sg30
g0
(g31
g2
Ntp3452
Rp3453
(dp3454
g35
I0
sg36
I0
sg37
g38
sbsbsbag0
(g16
g2
Ntp3455
Rp3456
(dp3457
g20
I00
sg21
I11
sg22
I1
sg23
I50
sg24
g3450
sbag0
(g16
g2
Ntp3458
Rp3459
(dp3460
g20
I00
sg21
I12
sg22
I1
sg23
I50
sg24
g3450
sbag0
(g16
g2
Ntp3461
Rp3462
(dp3463
g20
I00
sg21
I13
sg22
I1
sg23
I50
sg24
g3450
sbag0
(g16
g2
Ntp3464
Rp3465
(dp3466
g20
I00
sg21
I14
sg22
I1
sg23
I50
sg24
g3450
sbag0
(g16
g2
Ntp3467
Rp3468
(dp3469
g20
I01
sg21
I15
sg22
I2
sg23
I50
sg24
g52
sbag0
(g16
g2
Ntp3470
Rp3471
(dp3472
g20
I00
sg21
I16
sg22
I1
sg23
I50
sg24
g112
sbag0
(g16
g2
Ntp3473
Rp3474
(dp3475
g20
I00
sg21
I17
sg22
I1
sg23
I50
sg24
g121
sbaa(lp3476
g0
(g16
g2
Ntp3477
Rp3478
(dp3479
g20
I00
sg21
I0
sg22
I1
sg23
I51
sg24
g27
sbag0
(g16
g2
Ntp3480
Rp3481
(dp3482
g20
I00
sg21
I1
sg22
I1
sg23
I51
sg24
g43
sbag0
(g16
g2
Ntp3483
Rp3484
(dp3485
g20
I01
sg21
I2
sg22
I3
sg23
I51
sg24
g52
sbag0
(g16
g2
Ntp3486
Rp3487
(dp3488
g20
I00
sg21
I3
sg22
I1
sg23
I51
sg24
g0
(g25
g2
Ntp3489
Rp3490
(dp3491
g29
I204
sg30
g0
(g31
g2
Ntp3492
Rp3493
(dp3494
g35
I0
sg36
I0
sg37
g38
sbsbsbag0
(g16
g2
Ntp3495
Rp3496
(dp3497
g20
I00
sg21
I4
sg22
I1
sg23
I51
sg24
g3490
sbag0
(g16
g2
Ntp3498
Rp3499
(dp3500
g20
I00
sg21
I5
sg22
I1
sg23
I51
sg24
g3490
sbag0
(g16
g2
Ntp3501
Rp3502
(dp3503
g20
I00
sg21
I6
sg22
I1
sg23
I51
sg24
g3490
sbag0
(g16
g2
Ntp3504
Rp3505
(dp3506
g20
I00
sg21
I7
sg22
I1
sg23
I51
sg24
g3490
sbag0
(g16
g2
Ntp3507
Rp3508
(dp3509
g20
I01
sg21
I8
sg22
I5
sg23
I51
sg24
g52
sbag0
(g16
g2
Ntp3510
Rp3511
(dp3512
g20
I01
sg21
I9
sg22
I4
sg23
I51
sg24
g52
sbag0
(g16
g2
Ntp3513
Rp3514
(dp3515
g20
I00
sg21
I10
sg22
I1
sg23
I51
sg24
g0
(g25
g2
Ntp3516
Rp3517
(dp3518
g29
I205
sg30
g0
(g31
g2
Ntp3519
Rp3520
(dp3521
g35
I0
sg36
I0
sg37
g38
sbsbsbag0
(g16
g2
Ntp3522
Rp3523
(dp3524
g20
I00
sg21
I11
sg22
I1
sg23
I51
sg24
g3517
sbag0
(g16
g2
Ntp3525
Rp3526
(dp3527
g20
I00
sg21
I12
sg22
I1
sg23
I51
sg24
g3517
sbag0
(g16
g2
Ntp3528
Rp3529
(dp3530
g20
I00
sg21
I13
sg22
I1
sg23
I51
sg24
g3517
sbag0
(g16
g2
Ntp3531
Rp3532
(dp3533
g20
I00
sg21
I14
sg22
I1
sg23
I51
sg24
g3517
sbag0
(g16
g2
Ntp3534
Rp3535
(dp3536
g20
I01
sg21
I15
sg22
I2
sg23
I51
sg24
g52
sbag0
(g16
g2
Ntp3537
Rp3538
(dp3539
g20
I00
sg21
I16
sg22
I1
sg23
I51
sg24
g112
sbag0
(g16
g2
Ntp3540
Rp3541
(dp3542
g20
I00
sg21
I17
sg22
I1
sg23
I51
sg24
g121
sbaa(lp3543
g0
(g16
g2
Ntp3544
Rp3545
(dp3546
g20
I00
sg21
I0
sg22
I1
sg23
I52
sg24
g27
sbag0
(g16
g2
Ntp3547
Rp3548
(dp3549
g20
I00
sg21
I1
sg22
I1
sg23
I52
sg24
g43
sbag0
(g16
g2
Ntp3550
Rp3551
(dp3552
g20
I01
sg21
I2
sg22
I3
sg23
I52
sg24
g52
sbag0
(g16
g2
Ntp3553
Rp3554
(dp3555
g20
I00
sg21
I3
sg22
I1
sg23
I52
sg24
g0
(g25
g2
Ntp3556
Rp3557
(dp3558
g29
I208
sg30
g0
(g31
g2
Ntp3559
Rp3560
(dp3561
g35
I0
sg36
I0
sg37
g38
sbsbsbag0
(g16
g2
Ntp3562
Rp3563
(dp3564
g20
I00
sg21
I4
sg22
I1
sg23
I52
sg24
g3557
sbag0
(g16
g2
Ntp3565
Rp3566
(dp3567
g20
I00
sg21
I5
sg22
I1
sg23
I52
sg24
g3557
sbag0
(g16
g2
Ntp3568
Rp3569
(dp3570
g20
I00
sg21
I6
sg22
I1
sg23
I52
sg24
g3557
sbag0
(g16
g2
Ntp3571
Rp3572
(dp3573
g20
I00
sg21
I7
sg22
I1
sg23
I52
sg24
g3557
sbag0
(g16
g2
Ntp3574
Rp3575
(dp3576
g20
I01
sg21
I8
sg22
I5
sg23
I52
sg24
g52
sbag0
(g16
g2
Ntp3577
Rp3578
(dp3579
g20
I01
sg21
I9
sg22
I4
sg23
I52
sg24
g52
sbag0
(g16
g2
Ntp3580
Rp3581
(dp3582
g20
I00
sg21
I10
sg22
I1
sg23
I52
sg24
g0
(g25
g2
Ntp3583
Rp3584
(dp3585
g29
I209
sg30
g0
(g31
g2
Ntp3586
Rp3587
(dp3588
g35
I0
sg36
I0
sg37
g38
sbsbsbag0
(g16
g2
Ntp3589
Rp3590
(dp3591
g20
I00
sg21
I11
sg22
I1
sg23
I52
sg24
g3584
sbag0
(g16
g2
Ntp3592
Rp3593
(dp3594
g20
I00
sg21
I12
sg22
I1
sg23
I52
sg24
g3584
sbag0
(g16
g2
Ntp3595
Rp3596
(dp3597
g20
I00
sg21
I13
sg22
I1
sg23
I52
sg24
g3584
sbag0
(g16
g2
Ntp3598
Rp3599
(dp3600
g20
I00
sg21
I14
sg22
I1
sg23
I52
sg24
g3584
sbag0
(g16
g2
Ntp3601
Rp3602
(dp3603
g20
I01
sg21
I15
sg22
I2
sg23
I52
sg24
g52
sbag0
(g16
g2
Ntp3604
Rp3605
(dp3606
g20
I00
sg21
I16
sg22
I1
sg23
I52
sg24
g112
sbag0
(g16
g2
Ntp3607
Rp3608
(dp3609
g20
I00
sg21
I17
sg22
I1
sg23
I52
sg24
g121
sbaa(lp3610
g0
(g16
g2
Ntp3611
Rp3612
(dp3613
g20
I01
sg21
I0
sg22
I6
sg23
I53
sg24
g27
sbag0
(g16
g2
Ntp3614
Rp3615
(dp3616
g20
I01
sg21
I1
sg22
I6
sg23
I53
sg24
g43
sbag0
(g16
g2
Ntp3617
Rp3618
(dp3619
g20
I01
sg21
I2
sg22
I3
sg23
I53
sg24
g52
sbag0
(g16
g2
Ntp3620
Rp3621
(dp3622
g20
I00
sg21
I3
sg22
I1
sg23
I53
sg24
g0
(g25
g2
Ntp3623
Rp3624
(dp3625
g29
I212
sg30
g0
(g31
g2
Ntp3626
Rp3627
(dp3628
g35
I0
sg36
I0
sg37
g38
sbsbsbag0
(g16
g2
Ntp3629
Rp3630
(dp3631
g20
I00
sg21
I4
sg22
I1
sg23
I53
sg24
g3624
sbag0
(g16
g2
Ntp3632
Rp3633
(dp3634
g20
I00
sg21
I5
sg22
I1
sg23
I53
sg24
g3624
sbag0
(g16
g2
Ntp3635
Rp3636
(dp3637
g20
I00
sg21
I6
sg22
I1
sg23
I53
sg24
g3624
sbag0
(g16
g2
Ntp3638
Rp3639
(dp3640
g20
I00
sg21
I7
sg22
I1
sg23
I53
sg24
g3624
sbag0
(g16
g2
Ntp3641
Rp3642
(dp3643
g20
I01
sg21
I8
sg22
I5
sg23
I53
sg24
g52
sbag0
(g16
g2
Ntp3644
Rp3645
(dp3646
g20
I01
sg21
I9
sg22
I4
sg23
I53
sg24
g52
sbag0
(g16
g2
Ntp3647
Rp3648
(dp3649
g20
I00
sg21
I10
sg22
I1
sg23
I53
sg24
g0
(g25
g2
Ntp3650
Rp3651
(dp3652
g29
I213
sg30
g0
(g31
g2
Ntp3653
Rp3654
(dp3655
g35
I0
sg36
I0
sg37
g38
sbsbsbag0
(g16
g2
Ntp3656
Rp3657
(dp3658
g20
I00
sg21
I11
sg22
I1
sg23
I53
sg24
g3651
sbag0
(g16
g2
Ntp3659
Rp3660
(dp3661
g20
I00
sg21
I12
sg22
I1
sg23
I53
sg24
g3651
sbag0
(g16
g2
Ntp3662
Rp3663
(dp3664
g20
I00
sg21
I13
sg22
I1
sg23
I53
sg24
g3651
sbag0
(g16
g2
Ntp3665
Rp3666
(dp3667
g20
I00
sg21
I14
sg22
I1
sg23
I53
sg24
g3651
sbag0
(g16
g2
Ntp3668
Rp3669
(dp3670
g20
I01
sg21
I15
sg22
I2
sg23
I53
sg24
g52
sbag0
(g16
g2
Ntp3671
Rp3672
(dp3673
g20
I01
sg21
I16
sg22
I6
sg23
I53
sg24
g112
sbag0
(g16
g2
Ntp3674
Rp3675
(dp3676
g20
I01
sg21
I17
sg22
I6
sg23
I53
sg24
g121
sbaa(lp3677
g0
(g16
g2
Ntp3678
Rp3679
(dp3680
g20
I00
sg21
I0
sg22
I1
sg23
I54
sg24
g27
sbag0
(g16
g2
Ntp3681
Rp3682
(dp3683
g20
I00
sg21
I1
sg22
I1
sg23
I54
sg24
g43
sbag0
(g16
g2
Ntp3684
Rp3685
(dp3686
g20
I01
sg21
I2
sg22
I3
sg23
I54
sg24
g52
sbag0
(g16
g2
Ntp3687
Rp3688
(dp3689
g20
I00
sg21
I3
sg22
I1
sg23
I54
sg24
g0
(g25
g2
Ntp3690
Rp3691
(dp3692
g29
I216
sg30
g0
(g31
g2
Ntp3693
Rp3694
(dp3695
g35
I0
sg36
I0
sg37
g38
sbsbsbag0
(g16
g2
Ntp3696
Rp3697
(dp3698
g20
I00
sg21
I4
sg22
I1
sg23
I54
sg24
g3691
sbag0
(g16
g2
Ntp3699
Rp3700
(dp3701
g20
I00
sg21
I5
sg22
I1
sg23
I54
sg24
g3691
sbag0
(g16
g2
Ntp3702
Rp3703
(dp3704
g20
I00
sg21
I6
sg22
I1
sg23
I54
sg24
g3691
sbag0
(g16
g2
Ntp3705
Rp3706
(dp3707
g20
I00
sg21
I7
sg22
I1
sg23
I54
sg24
g3691
sbag0
(g16
g2
Ntp3708
Rp3709
(dp3710
g20
I01
sg21
I8
sg22
I5
sg23
I54
sg24
g52
sbag0
(g16
g2
Ntp3711
Rp3712
(dp3713
g20
I01
sg21
I9
sg22
I4
sg23
I54
sg24
g52
sbag0
(g16
g2
Ntp3714
Rp3715
(dp3716
g20
I00
sg21
I10
sg22
I1
sg23
I54
sg24
g0
(g25
g2
Ntp3717
Rp3718
(dp3719
g29
I217
sg30
g0
(g31
g2
Ntp3720
Rp3721
(dp3722
g35
I0
sg36
I0
sg37
g38
sbsbsbag0
(g16
g2
Ntp3723
Rp3724
(dp3725
g20
I00
sg21
I11
sg22
I1
sg23
I54
sg24
g3718
sbag0
(g16
g2
Ntp3726
Rp3727
(dp3728
g20
I00
sg21
I12
sg22
I1
sg23
I54
sg24
g3718
sbag0
(g16
g2
Ntp3729
Rp3730
(dp3731
g20
I00
sg21
I13
sg22
I1
sg23
I54
sg24
g3718
sbag0
(g16
g2
Ntp3732
Rp3733
(dp3734
g20
I00
sg21
I14
sg22
I1
sg23
I54
sg24
g3718
sbag0
(g16
g2
Ntp3735
Rp3736
(dp3737
g20
I01
sg21
I15
sg22
I2
sg23
I54
sg24
g52
sbag0
(g16
g2
Ntp3738
Rp3739
(dp3740
g20
I00
sg21
I16
sg22
I1
sg23
I54
sg24
g112
sbag0
(g16
g2
Ntp3741
Rp3742
(dp3743
g20
I00
sg21
I17
sg22
I1
sg23
I54
sg24
g121
sbaa(lp3744
g0
(g16
g2
Ntp3745
Rp3746
(dp3747
g20
I00
sg21
I0
sg22
I1
sg23
I55
sg24
g27
sbag0
(g16
g2
Ntp3748
Rp3749
(dp3750
g20
I00
sg21
I1
sg22
I1
sg23
I55
sg24
g43
sbag0
(g16
g2
Ntp3751
Rp3752
(dp3753
g20
I01
sg21
I2
sg22
I3
sg23
I55
sg24
g52
sbag0
(g16
g2
Ntp3754
Rp3755
(dp3756
g20
I00
sg21
I3
sg22
I1
sg23
I55
sg24
g0
(g25
g2
Ntp3757
Rp3758
(dp3759
g29
I220
sg30
g0
(g31
g2
Ntp3760
Rp3761
(dp3762
g35
I0
sg36
I0
sg37
g38
sbsbsbag0
(g16
g2
Ntp3763
Rp3764
(dp3765
g20
I00
sg21
I4
sg22
I1
sg23
I55
sg24
g3758
sbag0
(g16
g2
Ntp3766
Rp3767
(dp3768
g20
I00
sg21
I5
sg22
I1
sg23
I55
sg24
g3758
sbag0
(g16
g2
Ntp3769
Rp3770
(dp3771
g20
I00
sg21
I6
sg22
I1
sg23
I55
sg24
g3758
sbag0
(g16
g2
Ntp3772
Rp3773
(dp3774
g20
I00
sg21
I7
sg22
I1
sg23
I55
sg24
g3758
sbag0
(g16
g2
Ntp3775
Rp3776
(dp3777
g20
I01
sg21
I8
sg22
I5
sg23
I55
sg24
g52
sbag0
(g16
g2
Ntp3778
Rp3779
(dp3780
g20
I01
sg21
I9
sg22
I4
sg23
I55
sg24
g52
sbag0
(g16
g2
Ntp3781
Rp3782
(dp3783
g20
I00
sg21
I10
sg22
I1
sg23
I55
sg24
g0
(g25
g2
Ntp3784
Rp3785
(dp3786
g29
I221
sg30
g0
(g31
g2
Ntp3787
Rp3788
(dp3789
g35
I0
sg36
I0
sg37
g38
sbsbsbag0
(g16
g2
Ntp3790
Rp3791
(dp3792
g20
I00
sg21
I11
sg22
I1
sg23
I55
sg24
g3785
sbag0
(g16
g2
Ntp3793
Rp3794
(dp3795
g20
I00
sg21
I12
sg22
I1
sg23
I55
sg24
g3785
sbag0
(g16
g2
Ntp3796
Rp3797
(dp3798
g20
I00
sg21
I13
sg22
I1
sg23
I55
sg24
g3785
sbag0
(g16
g2
Ntp3799
Rp3800
(dp3801
g20
I00
sg21
I14
sg22
I1
sg23
I55
sg24
g3785
sbag0
(g16
g2
Ntp3802
Rp3803
(dp3804
g20
I01
sg21
I15
sg22
I2
sg23
I55
sg24
g52
sbag0
(g16
g2
Ntp3805
Rp3806
(dp3807
g20
I00
sg21
I16
sg22
I1
sg23
I55
sg24
g112
sbag0
(g16
g2
Ntp3808
Rp3809
(dp3810
g20
I00
sg21
I17
sg22
I1
sg23
I55
sg24
g121
sbaa(lp3811
g0
(g16
g2
Ntp3812
Rp3813
(dp3814
g20
I00
sg21
I0
sg22
I1
sg23
I56
sg24
g27
sbag0
(g16
g2
Ntp3815
Rp3816
(dp3817
g20
I00
sg21
I1
sg22
I1
sg23
I56
sg24
g43
sbag0
(g16
g2
Ntp3818
Rp3819
(dp3820
g20
I01
sg21
I2
sg22
I3
sg23
I56
sg24
g52
sbag0
(g16
g2
Ntp3821
Rp3822
(dp3823
g20
I00
sg21
I3
sg22
I1
sg23
I56
sg24
g0
(g25
g2
Ntp3824
Rp3825
(dp3826
g29
I224
sg30
g0
(g31
g2
Ntp3827
Rp3828
(dp3829
g35
I0
sg36
I0
sg37
g38
sbsbsbag0
(g16
g2
Ntp3830
Rp3831
(dp3832
g20
I00
sg21
I4
sg22
I1
sg23
I56
sg24
g3825
sbag0
(g16
g2
Ntp3833
Rp3834
(dp3835
g20
I00
sg21
I5
sg22
I1
sg23
I56
sg24
g3825
sbag0
(g16
g2
Ntp3836
Rp3837
(dp3838
g20
I00
sg21
I6
sg22
I1
sg23
I56
sg24
g3825
sbag0
(g16
g2
Ntp3839
Rp3840
(dp3841
g20
I00
sg21
I7
sg22
I1
sg23
I56
sg24
g3825
sbag0
(g16
g2
Ntp3842
Rp3843
(dp3844
g20
I01
sg21
I8
sg22
I5
sg23
I56
sg24
g52
sbag0
(g16
g2
Ntp3845
Rp3846
(dp3847
g20
I01
sg21
I9
sg22
I4
sg23
I56
sg24
g52
sbag0
(g16
g2
Ntp3848
Rp3849
(dp3850
g20
I00
sg21
I10
sg22
I1
sg23
I56
sg24
g0
(g25
g2
Ntp3851
Rp3852
(dp3853
g29
I225
sg30
g0
(g31
g2
Ntp3854
Rp3855
(dp3856
g35
I0
sg36
I0
sg37
g38
sbsbsbag0
(g16
g2
Ntp3857
Rp3858
(dp3859
g20
I00
sg21
I11
sg22
I1
sg23
I56
sg24
g3852
sbag0
(g16
g2
Ntp3860
Rp3861
(dp3862
g20
I00
sg21
I12
sg22
I1
sg23
I56
sg24
g3852
sbag0
(g16
g2
Ntp3863
Rp3864
(dp3865
g20
I00
sg21
I13
sg22
I1
sg23
I56
sg24
g3852
sbag0
(g16
g2
Ntp3866
Rp3867
(dp3868
g20
I00
sg21
I14
sg22
I1
sg23
I56
sg24
g3852
sbag0
(g16
g2
Ntp3869
Rp3870
(dp3871
g20
I01
sg21
I15
sg22
I2
sg23
I56
sg24
g52
sbag0
(g16
g2
Ntp3872
Rp3873
(dp3874
g20
I00
sg21
I16
sg22
I1
sg23
I56
sg24
g112
sbag0
(g16
g2
Ntp3875
Rp3876
(dp3877
g20
I00
sg21
I17
sg22
I1
sg23
I56
sg24
g121
sbaa(lp3878
g0
(g16
g2
Ntp3879
Rp3880
(dp3881
g20
I00
sg21
I0
sg22
I1
sg23
I57
sg24
g27
sbag0
(g16
g2
Ntp3882
Rp3883
(dp3884
g20
I00
sg21
I1
sg22
I1
sg23
I57
sg24
g43
sbag0
(g16
g2
Ntp3885
Rp3886
(dp3887
g20
I01
sg21
I2
sg22
I3
sg23
I57
sg24
g52
sbag0
(g16
g2
Ntp3888
Rp3889
(dp3890
g20
I00
sg21
I3
sg22
I1
sg23
I57
sg24
g0
(g25
g2
Ntp3891
Rp3892
(dp3893
g29
I228
sg30
g0
(g31
g2
Ntp3894
Rp3895
(dp3896
g35
I0
sg36
I0
sg37
g38
sbsbsbag0
(g16
g2
Ntp3897
Rp3898
(dp3899
g20
I00
sg21
I4
sg22
I1
sg23
I57
sg24
g3892
sbag0
(g16
g2
Ntp3900
Rp3901
(dp3902
g20
I00
sg21
I5
sg22
I1
sg23
I57
sg24
g3892
sbag0
(g16
g2
Ntp3903
Rp3904
(dp3905
g20
I00
sg21
I6
sg22
I1
sg23
I57
sg24
g3892
sbag0
(g16
g2
Ntp3906
Rp3907
(dp3908
g20
I00
sg21
I7
sg22
I1
sg23
I57
sg24
g3892
sbag0
(g16
g2
Ntp3909
Rp3910
(dp3911
g20
I01
sg21
I8
sg22
I5
sg23
I57
sg24
g52
sbag0
(g16
g2
Ntp3912
Rp3913
(dp3914
g20
I01
sg21
I9
sg22
I4
sg23
I57
sg24
g52
sbag0
(g16
g2
Ntp3915
Rp3916
(dp3917
g20
I00
sg21
I10
sg22
I1
sg23
I57
sg24
g0
(g25
g2
Ntp3918
Rp3919
(dp3920
g29
I229
sg30
g0
(g31
g2
Ntp3921
Rp3922
(dp3923
g35
I0
sg36
I0
sg37
g38
sbsbsbag0
(g16
g2
Ntp3924
Rp3925
(dp3926
g20
I00
sg21
I11
sg22
I1
sg23
I57
sg24
g3919
sbag0
(g16
g2
Ntp3927
Rp3928
(dp3929
g20
I00
sg21
I12
sg22
I1
sg23
I57
sg24
g3919
sbag0
(g16
g2
Ntp3930
Rp3931
(dp3932
g20
I00
sg21
I13
sg22
I1
sg23
I57
sg24
g3919
sbag0
(g16
g2
Ntp3933
Rp3934
(dp3935
g20
I00
sg21
I14
sg22
I1
sg23
I57
sg24
g3919
sbag0
(g16
g2
Ntp3936
Rp3937
(dp3938
g20
I01
sg21
I15
sg22
I2
sg23
I57
sg24
g52
sbag0
(g16
g2
Ntp3939
Rp3940
(dp3941
g20
I00
sg21
I16
sg22
I1
sg23
I57
sg24
g112
sbag0
(g16
g2
Ntp3942
Rp3943
(dp3944
g20
I00
sg21
I17
sg22
I1
sg23
I57
sg24
g121
sbaa(lp3945
g0
(g16
g2
Ntp3946
Rp3947
(dp3948
g20
I00
sg21
I0
sg22
I1
sg23
I58
sg24
g27
sbag0
(g16
g2
Ntp3949
Rp3950
(dp3951
g20
I00
sg21
I1
sg22
I1
sg23
I58
sg24
g43
sbag0
(g16
g2
Ntp3952
Rp3953
(dp3954
g20
I01
sg21
I2
sg22
I3
sg23
I58
sg24
g52
sbag0
(g16
g2
Ntp3955
Rp3956
(dp3957
g20
I00
sg21
I3
sg22
I1
sg23
I58
sg24
g0
(g25
g2
Ntp3958
Rp3959
(dp3960
g29
I232
sg30
g0
(g31
g2
Ntp3961
Rp3962
(dp3963
g35
I0
sg36
I0
sg37
g38
sbsbsbag0
(g16
g2
Ntp3964
Rp3965
(dp3966
g20
I00
sg21
I4
sg22
I1
sg23
I58
sg24
g3959
sbag0
(g16
g2
Ntp3967
Rp3968
(dp3969
g20
I00
sg21
I5
sg22
I1
sg23
I58
sg24
g3959
sbag0
(g16
g2
Ntp3970
Rp3971
(dp3972
g20
I00
sg21
I6
sg22
I1
sg23
I58
sg24
g3959
sbag0
(g16
g2
Ntp3973
Rp3974
(dp3975
g20
I00
sg21
I7
sg22
I1
sg23
I58
sg24
g3959
sbag0
(g16
g2
Ntp3976
Rp3977
(dp3978
g20
I01
sg21
I8
sg22
I5
sg23
I58
sg24
g52
sbag0
(g16
g2
Ntp3979
Rp3980
(dp3981
g20
I01
sg21
I9
sg22
I4
sg23
I58
sg24
g52
sbag0
(g16
g2
Ntp3982
Rp3983
(dp3984
g20
I00
sg21
I10
sg22
I1
sg23
I58
sg24
g0
(g25
g2
Ntp3985
Rp3986
(dp3987
g29
I233
sg30
g0
(g31
g2
Ntp3988
Rp3989
(dp3990
g35
I0
sg36
I0
sg37
g38
sbsbsbag0
(g16
g2
Ntp3991
Rp3992
(dp3993
g20
I00
sg21
I11
sg22
I1
sg23
I58
sg24
g3986
sbag0
(g16
g2
Ntp3994
Rp3995
(dp3996
g20
I00
sg21
I12
sg22
I1
sg23
I58
sg24
g3986
sbag0
(g16
g2
Ntp3997
Rp3998
(dp3999
g20
I00
sg21
I13
sg22
I1
sg23
I58
sg24
g3986
sbag0
(g16
g2
Ntp4000
Rp4001
(dp4002
g20
I00
sg21
I14
sg22
I1
sg23
I58
sg24
g3986
sbag0
(g16
g2
Ntp4003
Rp4004
(dp4005
g20
I01
sg21
I15
sg22
I2
sg23
I58
sg24
g52
sbag0
(g16
g2
Ntp4006
Rp4007
(dp4008
g20
I00
sg21
I16
sg22
I1
sg23
I58
sg24
g112
sbag0
(g16
g2
Ntp4009
Rp4010
(dp4011
g20
I00
sg21
I17
sg22
I1
sg23
I58
sg24
g121
sbaa(lp4012
g0
(g16
g2
Ntp4013
Rp4014
(dp4015
g20
I01
sg21
I0
sg22
I6
sg23
I59
sg24
g27
sbag0
(g16
g2
Ntp4016
Rp4017
(dp4018
g20
I01
sg21
I1
sg22
I6
sg23
I59
sg24
g43
sbag0
(g16
g2
Ntp4019
Rp4020
(dp4021
g20
I01
sg21
I2
sg22
I3
sg23
I59
sg24
g52
sbag0
(g16
g2
Ntp4022
Rp4023
(dp4024
g20
I00
sg21
I3
sg22
I1
sg23
I59
sg24
g0
(g25
g2
Ntp4025
Rp4026
(dp4027
g29
I236
sg30
g0
(g31
g2
Ntp4028
Rp4029
(dp4030
g35
I0
sg36
I0
sg37
g38
sbsbsbag0
(g16
g2
Ntp4031
Rp4032
(dp4033
g20
I00
sg21
I4
sg22
I1
sg23
I59
sg24
g4026
sbag0
(g16
g2
Ntp4034
Rp4035
(dp4036
g20
I00
sg21
I5
sg22
I1
sg23
I59
sg24
g4026
sbag0
(g16
g2
Ntp4037
Rp4038
(dp4039
g20
I00
sg21
I6
sg22
I1
sg23
I59
sg24
g4026
sbag0
(g16
g2
Ntp4040
Rp4041
(dp4042
g20
I00
sg21
I7
sg22
I1
sg23
I59
sg24
g4026
sbag0
(g16
g2
Ntp4043
Rp4044
(dp4045
g20
I01
sg21
I8
sg22
I5
sg23
I59
sg24
g52
sbag0
(g16
g2
Ntp4046
Rp4047
(dp4048
g20
I01
sg21
I9
sg22
I4
sg23
I59
sg24
g52
sbag0
(g16
g2
Ntp4049
Rp4050
(dp4051
g20
I00
sg21
I10
sg22
I1
sg23
I59
sg24
g0
(g25
g2
Ntp4052
Rp4053
(dp4054
g29
I237
sg30
g0
(g31
g2
Ntp4055
Rp4056
(dp4057
g35
I0
sg36
I0
sg37
g38
sbsbsbag0
(g16
g2
Ntp4058
Rp4059
(dp4060
g20
I00
sg21
I11
sg22
I1
sg23
I59
sg24
g4053
sbag0
(g16
g2
Ntp4061
Rp4062
(dp4063
g20
I00
sg21
I12
sg22
I1
sg23
I59
sg24
g4053
sbag0
(g16
g2
Ntp4064
Rp4065
(dp4066
g20
I00
sg21
I13
sg22
I1
sg23
I59
sg24
g4053
sbag0
(g16
g2
Ntp4067
Rp4068
(dp4069
g20
I00
sg21
I14
sg22
I1
sg23
I59
sg24
g4053
sbag0
(g16
g2
Ntp4070
Rp4071
(dp4072
g20
I01
sg21
I15
sg22
I2
sg23
I59
sg24
g52
sbag0
(g16
g2
Ntp4073
Rp4074
(dp4075
g20
I01
sg21
I16
sg22
I6
sg23
I59
sg24
g112
sbag0
(g16
g2
Ntp4076
Rp4077
(dp4078
g20
I01
sg21
I17
sg22
I6
sg23
I59
sg24
g121
sbaa(lp4079
g0
(g16
g2
Ntp4080
Rp4081
(dp4082
g20
I00
sg21
I0
sg22
I1
sg23
I60
sg24
g27
sbag0
(g16
g2
Ntp4083
Rp4084
(dp4085
g20
I00
sg21
I1
sg22
I1
sg23
I60
sg24
g43
sbag0
(g16
g2
Ntp4086
Rp4087
(dp4088
g20
I01
sg21
I2
sg22
I3
sg23
I60
sg24
g52
sbag0
(g16
g2
Ntp4089
Rp4090
(dp4091
g20
I00
sg21
I3
sg22
I1
sg23
I60
sg24
g0
(g25
g2
Ntp4092
Rp4093
(dp4094
g29
I240
sg30
g0
(g31
g2
Ntp4095
Rp4096
(dp4097
g35
I0
sg36
I0
sg37
g38
sbsbsbag0
(g16
g2
Ntp4098
Rp4099
(dp4100
g20
I00
sg21
I4
sg22
I1
sg23
I60
sg24
g4093
sbag0
(g16
g2
Ntp4101
Rp4102
(dp4103
g20
I00
sg21
I5
sg22
I1
sg23
I60
sg24
g4093
sbag0
(g16
g2
Ntp4104
Rp4105
(dp4106
g20
I00
sg21
I6
sg22
I1
sg23
I60
sg24
g4093
sbag0
(g16
g2
Ntp4107
Rp4108
(dp4109
g20
I00
sg21
I7
sg22
I1
sg23
I60
sg24
g4093
sbag0
(g16
g2
Ntp4110
Rp4111
(dp4112
g20
I01
sg21
I8
sg22
I5
sg23
I60
sg24
g52
sbag0
(g16
g2
Ntp4113
Rp4114
(dp4115
g20
I01
sg21
I9
sg22
I4
sg23
I60
sg24
g52
sbag0
(g16
g2
Ntp4116
Rp4117
(dp4118
g20
I00
sg21
I10
sg22
I1
sg23
I60
sg24
g0
(g25
g2
Ntp4119
Rp4120
(dp4121
g29
I241
sg30
g0
(g31
g2
Ntp4122
Rp4123
(dp4124
g35
I0
sg36
I0
sg37
g38
sbsbsbag0
(g16
g2
Ntp4125
Rp4126
(dp4127
g20
I00
sg21
I11
sg22
I1
sg23
I60
sg24
g4120
sbag0
(g16
g2
Ntp4128
Rp4129
(dp4130
g20
I00
sg21
I12
sg22
I1
sg23
I60
sg24
g4120
sbag0
(g16
g2
Ntp4131
Rp4132
(dp4133
g20
I00
sg21
I13
sg22
I1
sg23
I60
sg24
g4120
sbag0
(g16
g2
Ntp4134
Rp4135
(dp4136
g20
I00
sg21
I14
sg22
I1
sg23
I60
sg24
g4120
sbag0
(g16
g2
Ntp4137
Rp4138
(dp4139
g20
I01
sg21
I15
sg22
I2
sg23
I60
sg24
g52
sbag0
(g16
g2
Ntp4140
Rp4141
(dp4142
g20
I00
sg21
I16
sg22
I1
sg23
I60
sg24
g112
sbag0
(g16
g2
Ntp4143
Rp4144
(dp4145
g20
I00
sg21
I17
sg22
I1
sg23
I60
sg24
g121
sbaa(lp4146
g0
(g16
g2
Ntp4147
Rp4148
(dp4149
g20
I00
sg21
I0
sg22
I1
sg23
I61
sg24
g27
sbag0
(g16
g2
Ntp4150
Rp4151
(dp4152
g20
I00
sg21
I1
sg22
I1
sg23
I61
sg24
g43
sbag0
(g16
g2
Ntp4153
Rp4154
(dp4155
g20
I01
sg21
I2
sg22
I3
sg23
I61
sg24
g52
sbag0
(g16
g2
Ntp4156
Rp4157
(dp4158
g20
I00
sg21
I3
sg22
I1
sg23
I61
sg24
g0
(g25
g2
Ntp4159
Rp4160
(dp4161
g29
I244
sg30
g0
(g31
g2
Ntp4162
Rp4163
(dp4164
g35
I0
sg36
I0
sg37
g38
sbsbsbag0
(g16
g2
Ntp4165
Rp4166
(dp4167
g20
I00
sg21
I4
sg22
I1
sg23
I61
sg24
g4160
sbag0
(g16
g2
Ntp4168
Rp4169
(dp4170
g20
I00
sg21
I5
sg22
I1
sg23
I61
sg24
g4160
sbag0
(g16
g2
Ntp4171
Rp4172
(dp4173
g20
I00
sg21
I6
sg22
I1
sg23
I61
sg24
g4160
sbag0
(g16
g2
Ntp4174
Rp4175
(dp4176
g20
I00
sg21
I7
sg22
I1
sg23
I61
sg24
g4160
sbag0
(g16
g2
Ntp4177
Rp4178
(dp4179
g20
I01
sg21
I8
sg22
I5
sg23
I61
sg24
g52
sbag0
(g16
g2
Ntp4180
Rp4181
(dp4182
g20
I01
sg21
I9
sg22
I4
sg23
I61
sg24
g52
sbag0
(g16
g2
Ntp4183
Rp4184
(dp4185
g20
I00
sg21
I10
sg22
I1
sg23
I61
sg24
g0
(g25
g2
Ntp4186
Rp4187
(dp4188
g29
I245
sg30
g0
(g31
g2
Ntp4189
Rp4190
(dp4191
g35
I0
sg36
I0
sg37
g38
sbsbsbag0
(g16
g2
Ntp4192
Rp4193
(dp4194
g20
I00
sg21
I11
sg22
I1
sg23
I61
sg24
g4187
sbag0
(g16
g2
Ntp4195
Rp4196
(dp4197
g20
I00
sg21
I12
sg22
I1
sg23
I61
sg24
g4187
sbag0
(g16
g2
Ntp4198
Rp4199
(dp4200
g20
I00
sg21
I13
sg22
I1
sg23
I61
sg24
g4187
sbag0
(g16
g2
Ntp4201
Rp4202
(dp4203
g20
I00
sg21
I14
sg22
I1
sg23
I61
sg24
g4187
sbag0
(g16
g2
Ntp4204
Rp4205
(dp4206
g20
I01
sg21
I15
sg22
I2
sg23
I61
sg24
g52
sbag0
(g16
g2
Ntp4207
Rp4208
(dp4209
g20
I00
sg21
I16
sg22
I1
sg23
I61
sg24
g112
sbag0
(g16
g2
Ntp4210
Rp4211
(dp4212
g20
I00
sg21
I17
sg22
I1
sg23
I61
sg24
g121
sbaa(lp4213
g0
(g16
g2
Ntp4214
Rp4215
(dp4216
g20
I00
sg21
I0
sg22
I1
sg23
I62
sg24
g27
sbag0
(g16
g2
Ntp4217
Rp4218
(dp4219
g20
I00
sg21
I1
sg22
I1
sg23
I62
sg24
g43
sbag0
(g16
g2
Ntp4220
Rp4221
(dp4222
g20
I01
sg21
I2
sg22
I3
sg23
I62
sg24
g52
sbag0
(g16
g2
Ntp4223
Rp4224
(dp4225
g20
I00
sg21
I3
sg22
I1
sg23
I62
sg24
g0
(g25
g2
Ntp4226
Rp4227
(dp4228
g29
I248
sg30
g0
(g31
g2
Ntp4229
Rp4230
(dp4231
g35
I0
sg36
I0
sg37
g38
sbsbsbag0
(g16
g2
Ntp4232
Rp4233
(dp4234
g20
I00
sg21
I4
sg22
I1
sg23
I62
sg24
g4227
sbag0
(g16
g2
Ntp4235
Rp4236
(dp4237
g20
I00
sg21
I5
sg22
I1
sg23
I62
sg24
g4227
sbag0
(g16
g2
Ntp4238
Rp4239
(dp4240
g20
I00
sg21
I6
sg22
I1
sg23
I62
sg24
g4227
sbag0
(g16
g2
Ntp4241
Rp4242
(dp4243
g20
I00
sg21
I7
sg22
I1
sg23
I62
sg24
g4227
sbag0
(g16
g2
Ntp4244
Rp4245
(dp4246
g20
I01
sg21
I8
sg22
I5
sg23
I62
sg24
g52
sbag0
(g16
g2
Ntp4247
Rp4248
(dp4249
g20
I01
sg21
I9
sg22
I4
sg23
I62
sg24
g52
sbag0
(g16
g2
Ntp4250
Rp4251
(dp4252
g20
I00
sg21
I10
sg22
I1
sg23
I62
sg24
g0
(g25
g2
Ntp4253
Rp4254
(dp4255
g29
I249
sg30
g0
(g31
g2
Ntp4256
Rp4257
(dp4258
g35
I0
sg36
I0
sg37
g38
sbsbsbag0
(g16
g2
Ntp4259
Rp4260
(dp4261
g20
I00
sg21
I11
sg22
I1
sg23
I62
sg24
g4254
sbag0
(g16
g2
Ntp4262
Rp4263
(dp4264
g20
I00
sg21
I12
sg22
I1
sg23
I62
sg24
g4254
sbag0
(g16
g2
Ntp4265
Rp4266
(dp4267
g20
I00
sg21
I13
sg22
I1
sg23
I62
sg24
g4254
sbag0
(g16
g2
Ntp4268
Rp4269
(dp4270
g20
I00
sg21
I14
sg22
I1
sg23
I62
sg24
g4254
sbag0
(g16
g2
Ntp4271
Rp4272
(dp4273
g20
I01
sg21
I15
sg22
I2
sg23
I62
sg24
g52
sbag0
(g16
g2
Ntp4274
Rp4275
(dp4276
g20
I00
sg21
I16
sg22
I1
sg23
I62
sg24
g112
sbag0
(g16
g2
Ntp4277
Rp4278
(dp4279
g20
I00
sg21
I17
sg22
I1
sg23
I62
sg24
g121
sbaasbsg12
I63
sS'componentList'
p4280
(lp4281
g0
(cBreadboardComponent
OpAmp
p4282
g2
Ntp4283
Rp4284
(dp4285
S'displayName'
p4286
S'OpAmp'
p4287
sS'spiceName'
p4288
S'X'
p4289
sS'pinList'
p4290
(lp4291
g1370
ag1437
ag1504
ag1571
ag1562
ag1495
ag1428
ag1361
asS'standardPinList'
p4292
(lp4293
g0
(cLocation
RelativeLocation
p4294
g2
Ntp4295
Rp4296
(dp4297
g24
g52
sg21
I0
sS'referenceLocation'
p4298
Nsg23
I0
sS'label'
p4299
S''
p4300
sg20
I00
sg22
I1
sbag0
(g4294
g2
Ntp4301
Rp4302
(dp4303
g24
g52
sg21
I0
sg4298
Nsg23
I1
sg4299
g4300
sg20
I00
sg22
I1
sbag0
(g4294
g2
Ntp4304
Rp4305
(dp4306
g24
g52
sg21
I0
sg4298
Nsg23
I2
sg4299
g4300
sg20
I00
sg22
I1
sbag0
(g4294
g2
Ntp4307
Rp4308
(dp4309
g24
g52
sg21
I0
sg4298
Nsg23
I3
sg4299
g4300
sg20
I00
sg22
I1
sbag0
(g4294
g2
Ntp4310
Rp4311
(dp4312
g24
g52
sg21
I-3
sg4298
Nsg23
I3
sg4299
g4300
sg20
I00
sg22
I1
sbag0
(g4294
g2
Ntp4313
Rp4314
(dp4315
g24
g52
sg21
I-3
sg4298
Nsg23
I2
sg4299
g4300
sg20
I00
sg22
I1
sbag0
(g4294
g2
Ntp4316
Rp4317
(dp4318
g24
g52
sg21
I-3
sg4298
Nsg23
I1
sg4299
g4300
sg20
I00
sg22
I1
sbag0
(g4294
g2
Ntp4319
Rp4320
(dp4321
g24
g52
sg21
I-3
sg4298
Nsg23
I0
sg4299
g4300
sg20
I00
sg22
I1
sbasS'deadPins'
p4322
(lp4323
g1367
ag1434
ag1501
ag1568
ag1364
ag1431
ag1498
ag1565
asS'height'
p4324
I4
sS'width'
p4325
I4
sS'technicalName'
p4326
S'OPA551'
p4327
sS'referencePin'
p4328
g1370
sS'attributes'
p4329
(dp4330
sbag0
(cBreadboardComponent
Wire
p4331
g2
Ntp4332
Rp4333
(dp4334
g4286
S'Wire'
p4335
sg4288
S'R'
p4336
sg4290
(lp4337
g1455
ag1464
asg4292
(lp4338
g0
(g4294
g2
Ntp4339
Rp4340
(dp4341
g24
g52
sg21
I0
sg4298
Nsg23
I0
sg4299
g4300
sg20
I00
sg22
I1
sbag0
(g4294
g2
Ntp4342
Rp4343
(dp4344
g24
g52
sg21
I0
sg4298
Nsg23
I0
sg4299
g4300
sg20
I00
sg22
I1
sbasg4326
g4335
sS'maxLength'
p4345
I30
sg4328
g1455
sg4329
(dp4346
S'Resistance'
p4347
F1.0000000000000001e-09
ssbag0
(cBreadboardComponent
InputDevice
p4348
g2
Ntp4349
Rp4350
(dp4351
g4286
S'Input Device'
p4352
sg4288
S'V'
p4353
sg37
g38
sg4290
(lp4354
g1516
asg4292
(lp4355
g0
(g4294
g2
Ntp4356
Rp4357
(dp4358
g24
g52
sg21
I0
sg4298
Nsg23
I0
sg4299
g4300
sg20
I00
sg22
I1
sbasg4322
(lp4359
sg4324
I1
sg4325
I1
sg36
I0
sg30
g0
(g31
g2
Ntp4360
Rp4361
(dp4362
g35
I0
sg36
I0
sg37
g38
sbsS'currentOrVoltage'
p4363
S'Voltage'
p4364
sg4328
g1516
sg4329
(dp4365
S'Voltage Type'
p4366
g38
sS'Frequency'
p4367
I0
sg4364
F0.01
ssg4326
S'0Volts DC 0Hz'
p4368
sbag0
(g4331
g2
Ntp4369
Rp4370
(dp4371
g4286
g4335
sg4288
g4336
sg4290
(lp4372
g1589
ag1598
asg4292
(lp4373
g0
(g4294
g2
Ntp4374
Rp4375
(dp4376
g24
g52
sg21
I0
sg4298
Nsg23
I0
sg4299
g4300
sg20
I00
sg22
I1
sbag0
(g4294
g2
Ntp4377
Rp4378
(dp4379
g24
g52
sg21
I0
sg4298
Nsg23
I0
sg4299
g4300
sg20
I00
sg22
I1
sbasg4326
g4335
sg4345
I30
sg4328
g1589
sg4329
(dp4380
g4347
F1.0000000000000001e-09
ssbag0
(g4331
g2
Ntp4381
Rp4382
(dp4383
g4286
g4335
sg4288
g4336
sg4290
(lp4384
g1410
ag1401
asg4292
(lp4385
g0
(g4294
g2
Ntp4386
Rp4387
(dp4388
g24
g52
sg21
I0
sg4298
Nsg23
I0
sg4299
g4300
sg20
I00
sg22
I1
sbag0
(g4294
g2
Ntp4389
Rp4390
(dp4391
g24
g52
sg21
I0
sg4298
Nsg23
I0
sg4299
g4300
sg20
I00
sg22
I1
sbasg4326
g4335
sg4345
I30
sg4328
g1410
sg4329
(dp4392
g4347
F1.0000000000000001e-09
ssbag0
(g4331
g2
Ntp4393
Rp4394
(dp4395
g4286
g4335
sg4288
g4336
sg4290
(lp4396
g1492
ag1961
asg4292
(lp4397
g0
(g4294
g2
Ntp4398
Rp4399
(dp4400
g24
g52
sg21
I0
sg4298
Nsg23
I0
sg4299
g4300
sg20
I00
sg22
I1
sbag0
(g4294
g2
Ntp4401
Rp4402
(dp4403
g24
g52
sg21
I0
sg4298
Nsg23
I0
sg4299
g4300
sg20
I00
sg22
I1
sbasg4326
g4335
sg4345
I30
sg4328
g1492
sg4329
(dp4404
g4347
F1.0000000000000001e-09
ssbag0
(g4331
g2
Ntp4405
Rp4406
(dp4407
g4286
g4335
sg4288
g4336
sg4290
(lp4408
g1964
ag2000
asg4292
(lp4409
g0
(g4294
g2
Ntp4410
Rp4411
(dp4412
g24
g52
sg21
I0
sg4298
Nsg23
I0
sg4299
g4300
sg20
I00
sg22
I1
sbag0
(g4294
g2
Ntp4413
Rp4414
(dp4415
g24
g52
sg21
I0
sg4298
Nsg23
I0
sg4299
g4300
sg20
I00
sg22
I1
sbasg4326
g4335
sg4345
I30
sg4328
g1964
sg4329
(dp4416
g4347
F1.0000000000000001e-09
ssbag0
(g4331
g2
Ntp4417
Rp4418
(dp4419
g4286
g4335
sg4288
g4336
sg4290
(lp4420
g1449
ag1385
asg4292
(lp4421
g0
(g4294
g2
Ntp4422
Rp4423
(dp4424
g24
g52
sg21
I0
sg4298
Nsg23
I0
sg4299
g4300
sg20
I00
sg22
I1
sbag0
(g4294
g2
Ntp4425
Rp4426
(dp4427
g24
g52
sg21
I0
sg4298
Nsg23
I0
sg4299
g4300
sg20
I00
sg22
I1
sbasg4326
g4335
sg4345
I30
sg4328
g1449
sg4329
(dp4428
g4347
F1.0000000000000001e-09
ssbasS'rails'
p4429
(lp4430
I0
aF2.5
aF2.5
aI5
asb.